

Microchip MPLAB XC8 Assembler V2.40 build 20220703182018 
                                                                                               Thu Oct 12 13:40:48 2023

Microchip MPLAB XC8 C Compiler v2.40 (Free license) build 20220703182018 Og1 
     1                           	processor	18F4550
     2                           	fnconf	rparam,??,?,0
     3                           	pagewidth 120
     4                           	opt	flic
     5                           	psect	idataCOMRAM,global,class=CODE,delta=1,noexec
     6                           	psect	smallconst,global,reloc=2,class=SMALLCONST,delta=1,noexec
     7                           	psect	cinit,global,reloc=2,class=CODE,delta=1
     8                           	psect	bssCOMRAM,global,class=COMRAM,space=1,delta=1,lowdata,noexec
     9                           	psect	dataCOMRAM,global,class=COMRAM,space=1,delta=1,lowdata,noexec
    10                           	psect	bssBANK0,global,class=BANK0,space=1,delta=1,lowdata,noexec
    11                           	psect	bssBANK1,global,class=BANK1,space=1,delta=1,lowdata,noexec
    12                           	psect	cstackBANK0,global,class=BANK0,space=1,delta=1,lowdata,noexec
    13                           	psect	cstackCOMRAM,global,class=COMRAM,space=1,delta=1,lowdata,noexec
    14                           	psect	text0,global,reloc=2,class=CODE,delta=1
    15                           	psect	text1,global,reloc=2,class=CODE,delta=1
    16                           	psect	text2,global,reloc=2,class=CODE,delta=1,group=3
    17                           	psect	text3,global,reloc=2,class=CODE,delta=1,group=1
    18                           	psect	text4,global,reloc=2,class=CODE,delta=1,group=1
    19                           	psect	text5,global,reloc=2,class=CODE,delta=1,group=1
    20                           	psect	text6,global,reloc=2,class=CODE,delta=1,group=3
    21                           	psect	text7,global,reloc=2,class=CODE,delta=1,group=1
    22                           	psect	text8,global,reloc=2,class=CODE,delta=1,group=3
    23                           	psect	text9,global,reloc=2,class=CODE,delta=1,group=3
    24                           	psect	text10,global,reloc=2,class=CODE,delta=1,group=3
    25                           	psect	text11,global,reloc=2,class=CODE,delta=1,group=3
    26                           	psect	text12,global,reloc=2,class=CODE,delta=1,group=3
    27                           	psect	text13,global,reloc=2,class=CODE,delta=1,group=3
    28                           	psect	text14,global,reloc=2,class=CODE,delta=1,group=3
    29                           	psect	text15,global,reloc=2,class=CODE,delta=1,group=2
    30                           	psect	text16,global,reloc=2,class=CODE,delta=1,group=2
    31                           	psect	text17,global,reloc=2,class=CODE,delta=1,group=2
    32                           	psect	text18,global,reloc=2,class=CODE,delta=1,group=2
    33                           	psect	text19,global,reloc=2,class=CODE,delta=1,group=2
    34                           	psect	text20,global,reloc=2,class=CODE,delta=1,group=2
    35                           	psect	text21,global,reloc=2,class=CODE,delta=1,group=2
    36                           	psect	text22,global,reloc=2,class=CODE,delta=1,group=2
    37                           	psect	text23,global,reloc=2,class=CODE,delta=1
    38                           	psect	text24,global,reloc=2,class=CODE,delta=1
    39                           	psect	text25,global,reloc=2,class=CODE,delta=1
    40                           	psect	text26,global,reloc=2,class=CODE,delta=1
    41                           	psect	text27,global,reloc=2,class=CODE,delta=1
    42                           	psect	text28,global,reloc=2,class=CODE,delta=1
    43                           	psect	text29,global,reloc=2,class=CODE,delta=1
    44                           	psect	text30,global,reloc=2,class=CODE,delta=1
    45                           	psect	text31,global,reloc=2,class=CODE,delta=1
    46                           	psect	intcode,global,reloc=2,class=CODE,delta=1
    47                           	psect	intcode_body,global,reloc=2,class=CODE,delta=1
    48                           	psect	text33,global,reloc=2,class=CODE,delta=1
    49                           	psect	text34,global,reloc=2,class=CODE,delta=1,group=2
    50                           	psect	intsave_regs,global,class=BIGRAM,space=1,delta=1,noexec
    51                           	psect	rparam,global,class=COMRAM,space=1,delta=1,noexec
    52                           	psect	temp,global,ovrld,common,class=COMRAM,space=1,delta=1
    53                           	psect	idloc,global,abs,ovrld,class=IDLOC,space=5,delta=1,noexec
    54                           	psect	config,global,abs,ovrld,class=CONFIG,space=4,delta=1,noexec
    55   000000                     
    56                           ; Version 2.40
    57                           ; Generated 17/11/2021 GMT
    58                           ; 
    59                           ; Copyright © 2021, Microchip Technology Inc. and its subsidiaries ("Microchip")
    60                           ; All rights reserved.
    61                           ; 
    62                           ; This software is developed by Microchip Technology Inc. and its subsidiaries ("Microch
      +                          ip").
    63                           ; 
    64                           ; Redistribution and use in source and binary forms, with or without modification, are
    65                           ; permitted provided that the following conditions are met:
    66                           ; 
    67                           ;     1. Redistributions of source code must retain the above copyright notice, this lis
      +                          t of
    68                           ;        conditions and the following disclaimer.
    69                           ; 
    70                           ;     2. Redistributions in binary form must reproduce the above copyright notice, this 
      +                          list
    71                           ;        of conditions and the following disclaimer in the documentation and/or other
    72                           ;        materials provided with the distribution. Publication is not required when
    73                           ;        this file is used in an embedded application.
    74                           ; 
    75                           ;     3. Microchip's name may not be used to endorse or promote products derived from th
      +                          is
    76                           ;        software without specific prior written permission.
    77                           ; 
    78                           ; THIS SOFTWARE IS PROVIDED BY MICROCHIP "AS IS" AND ANY EXPRESS OR IMPLIED WARRANTIES,
    79                           ; INCLUDING, BUT NOT LIMITED TO, THE IMPLIED WARRANTIES OF MERCHANTABILITY AND FITNESS F
      +                          OR
    80                           ; PURPOSE ARE DISCLAIMED.  IN NO EVENT SHALL MICROCHIP BE LIABLE FOR ANY DIRECT, INDIREC
      +                          T,
    81                           ; INCIDENTAL, SPECIAL, EXEMPLARY, OR CONSEQUENTIAL DAMAGES (INCLUDING BUT NOT LIMITED TO
    82                           ; PROCUREMENT OF SUBSTITUTE GOODS OR SERVICES; LOSS OF USE, DATA OR PROFITS; OR BUSINESS
    83                           ; INTERRUPTION) HOWSOEVER CAUSED AND ON ANY THEORY OF LIABILITY, WHETHER IN CONTRACT, ST
      +                          RICT
    84                           ; LIABILITY, OR TORT (INCLUDING NEGLIGENCE OR OTHERWISE) ARISING IN ANY WAY OUT OF THE U
      +                          SE OF
    85                           ; THIS SOFTWARE, EVEN IF ADVISED OF THE POSSIBILITY OF SUCH DAMAGE.
    86                           ; 
    87                           ; 
    88                           ; Code-generator required, PIC18F4550 Definitions
    89                           ; 
    90                           ; SFR Addresses
    91   000000                     
    92                           	psect	idataCOMRAM
    93   003444                     __pidataCOMRAM:
    94                           	callstack 0
    95                           
    96                           ;initializer for _aux
    97   003444  20                 	db	32
    98   003445  00                 	db	0
    99   003446  00                 	db	0
   100   003447  00                 	db	0
   101   003448  00                 	db	0
   102   003449  00                 	db	0
   103   00344A  00                 	db	0
   104   00344B  00                 	db	0
   105   00344C  00                 	db	0
   106   00344D  00                 	db	0
   107   00344E  00                 	db	0
   108   00344F  00                 	db	0
   109   003450  00                 	db	0
   110   003451  00                 	db	0
   111   003452  00                 	db	0
   112   003453  00                 	db	0
   113   003454  00                 	db	0
   114   003455  00                 	db	0
   115   003456  00                 	db	0
   116   003457  00                 	db	0
   117   000000                     _LATDbits	set	3980
   118   000000                     _TRISC	set	3988
   119   000000                     _PIR1bits	set	3998
   120   000000                     _CCPR1L	set	4030
   121   000000                     _CCPR1H	set	4031
   122   000000                     _ADCON1	set	4033
   123   000000                     _TMR1L	set	4046
   124   000000                     _TMR1H	set	4047
   125   000000                     _INTCONbits	set	4082
   126   000000                     _CCP1CONbits	set	4029
   127   000000                     _T1CONbits	set	4045
   128   000000                     _TRISDbits	set	3989
   129   000000                     _PIE1bits	set	3997
   130                           
   131                           	psect	smallconst
   132   000800                     __psmallconst:
   133                           	callstack 0
   134   000800  00                 	db	0
   135   000801  20                 	db	32
   136   000802  20                 	db	32
   137   000803  20                 	db	32
   138   000804  20                 	db	32
   139   000805  20                 	db	32
   140   000806  20                 	db	32
   141   000807  20                 	db	32
   142   000808  20                 	db	32
   143   000809  20                 	db	32
   144   00080A  20                 	db	32
   145   00080B  20                 	db	32
   146   00080C  20                 	db	32
   147   00080D  20                 	db	32
   148   00080E  20                 	db	32
   149   00080F  20                 	db	32
   150   000810  20                 	db	32
   151   000811  20                 	db	32
   152   000812  20                 	db	32
   153   000813  20                 	db	32
   154   000814  20                 	db	32
   155   000815  00                 	db	0
   156   000816                     STR_1:
   157   000816  54                 	db	84	;'T'
   158   000817  3A                 	db	58	;':'
   159   000818  20                 	db	32
   160   000819  25                 	db	37
   161   00081A  66                 	db	102	;'f'
   162   00081B  00                 	db	0
   163   00081C                     STR_3:
   164   00081C  69                 	db	105	;'i'
   165   00081D  6E                 	db	110	;'n'
   166   00081E  66                 	db	102	;'f'
   167   00081F  00                 	db	0
   168   000820                     STR_6:
   169   000820  6E                 	db	110	;'n'
   170   000821  61                 	db	97	;'a'
   171   000822  6E                 	db	110	;'n'
   172   000823  00                 	db	0
   173   000824  00                 	db	0	; dummy byte at the end
   174   000000                     
   175                           ; #config settings
   176                           
   177                           	psect	cinit
   178   0031F0                     __pcinit:
   179                           	callstack 0
   180   0031F0                     start_initialization:
   181                           	callstack 0
   182   0031F0                     __initialization:
   183                           	callstack 0
   184                           
   185                           ; Initialize objects allocated to COMRAM (20 bytes)
   186                           ; load TBLPTR registers with __pidataCOMRAM
   187   0031F0  0E44               	movlw	low __pidataCOMRAM
   188   0031F2  6EF6               	movwf	tblptrl,c
   189   0031F4  0E34               	movlw	high __pidataCOMRAM
   190   0031F6  6EF7               	movwf	tblptrh,c
   191   0031F8  0E00               	movlw	low (__pidataCOMRAM shr (0+16))
   192   0031FA  6EF8               	movwf	tblptru,c
   193   0031FC  EE00  F02C         	lfsr	0,__pdataCOMRAM
   194   003200  EE10 F014          	lfsr	1,20
   195   003204                     copy_data0:
   196   003204  0009               	tblrd		*+
   197   003206  CFF5 FFEE          	movff	tablat,postinc0
   198   00320A  50E5               	movf	postdec1,w,c
   199   00320C  50E1               	movf	fsr1l,w,c
   200   00320E  E1FA               	bnz	copy_data0
   201                           
   202                           ; Clear objects allocated to BANK1 (80 bytes)
   203   003210  EE01  F000         	lfsr	0,__pbssBANK1
   204   003214  0E50               	movlw	80
   205   003216                     clear_0:
   206   003216  6AEE               	clrf	postinc0,c
   207   003218  06E8               	decf	wreg,f,c
   208   00321A  E1FD               	bnz	clear_0
   209                           
   210                           ; Clear objects allocated to BANK0 (13 bytes)
   211   00321C  EE00  F0F2         	lfsr	0,__pbssBANK0
   212   003220  0E0D               	movlw	13
   213   003222                     clear_1:
   214   003222  6AEE               	clrf	postinc0,c
   215   003224  06E8               	decf	wreg,f,c
   216   003226  E1FD               	bnz	clear_1
   217                           
   218                           ; Clear objects allocated to COMRAM (6 bytes)
   219   003228  6A45               	clrf	(__pbssCOMRAM+5)& (0+255),c
   220   00322A  6A44               	clrf	(__pbssCOMRAM+4)& (0+255),c
   221   00322C  6A43               	clrf	(__pbssCOMRAM+3)& (0+255),c
   222   00322E  6A42               	clrf	(__pbssCOMRAM+2)& (0+255),c
   223   003230  6A41               	clrf	(__pbssCOMRAM+1)& (0+255),c
   224   003232  6A40               	clrf	__pbssCOMRAM& (0+255),c
   225   003234                     end_of_initialization:
   226                           	callstack 0
   227   003234                     __end_of__initialization:
   228                           	callstack 0
   229   003234  9046               	bcf	int$flags,0,c	;clear compiler interrupt flag (level 1)
   230   003236  9246               	bcf	int$flags,1,c	;clear compiler interrupt flag (level 2)
   231   003238  0E00               	movlw	low (__Lmediumconst shr (0+16))
   232   00323A  6EF8               	movwf	tblptru,c
   233   00323C  0100               	movlb	0
   234   00323E  EFC5  F018         	goto	_main	;jump to C main() function
   235                           
   236                           	psect	bssCOMRAM
   237   000040                     __pbssCOMRAM:
   238                           	callstack 0
   239   000040                     ___fpclassifyf@F465:
   240                           	callstack 0
   241   000040                     	ds	4
   242   000044                     _pasos:
   243                           	callstack 0
   244   000044                     	ds	2
   245                           
   246                           	psect	dataCOMRAM
   247   00002C                     __pdataCOMRAM:
   248                           	callstack 0
   249   00002C                     _aux:
   250                           	callstack 0
   251   00002C                     	ds	20
   252                           
   253                           	psect	bssBANK0
   254   0000F2                     __pbssBANK0:
   255                           	callstack 0
   256   0000F2                     floorf@F526:
   257                           	callstack 0
   258   0000F2                     	ds	4
   259   0000F6                     _periodo:
   260                           	callstack 0
   261   0000F6                     	ds	4
   262   0000FA                     _width:
   263                           	callstack 0
   264   0000FA                     	ds	2
   265   0000FC                     _prec:
   266                           	callstack 0
   267   0000FC                     	ds	2
   268   0000FE                     _flags:
   269                           	callstack 0
   270   0000FE                     	ds	1
   271                           
   272                           	psect	bssBANK1
   273   000100                     __pbssBANK1:
   274                           	callstack 0
   275   000100                     _dbuf:
   276                           	callstack 0
   277   000100                     	ds	80
   278                           
   279                           	psect	cstackBANK0
   280   000060                     __pcstackBANK0:
   281                           	callstack 0
   282   000060                     ??_enviar_dato:
   283   000060                     ?___fpclassifyf:
   284                           	callstack 0
   285   000060                     ?___fladd:
   286                           	callstack 0
   287   000060                     ?___fldiv:
   288                           	callstack 0
   289   000060                     ?___flmul:
   290                           	callstack 0
   291   000060                     ?_labs:
   292                           	callstack 0
   293   000060                     ?___flneg:
   294                           	callstack 0
   295   000060                     ?___fltol:
   296                           	callstack 0
   297   000060                     memcpy@d1:
   298                           	callstack 0
   299   000060                     fputc@c:
   300                           	callstack 0
   301   000060                     strcpy@dest:
   302                           	callstack 0
   303   000060                     ___fleq@ff1:
   304                           	callstack 0
   305   000060                     ___flneg@f1:
   306                           	callstack 0
   307   000060                     ___fltol@f1:
   308                           	callstack 0
   309   000060                     ___fladd@b:
   310                           	callstack 0
   311   000060                     ___fldiv@b:
   312                           	callstack 0
   313   000060                     ___flmul@b:
   314                           	callstack 0
   315   000060                     ___fpclassifyf@x:
   316                           	callstack 0
   317   000060                     labs@a:
   318                           	callstack 0
   319                           
   320                           ; 4 bytes @ 0x0
   321   000060                     	ds	2
   322   000062                     enviar_dato@cmd:
   323                           	callstack 0
   324   000062                     memcpy@s1:
   325                           	callstack 0
   326   000062                     fputc@fp:
   327                           	callstack 0
   328   000062                     strcpy@src:
   329                           	callstack 0
   330                           
   331                           ; 2 bytes @ 0x2
   332   000062                     	ds	1
   333   000063                     ??_LCD_Init:
   334   000063                     LCD_Chr_Cp@letra:
   335                           	callstack 0
   336   000063                     LCD_Cmd@cmd:
   337                           	callstack 0
   338                           
   339                           ; 1 bytes @ 0x3
   340   000063                     	ds	1
   341   000064                     ??_fputc:
   342   000064                     ??___fpclassifyf:
   343   000064                     ??_labs:
   344   000064                     ??___fltol:
   345   000064                     LCD_XY@column:
   346                           	callstack 0
   347   000064                     memcpy@n:
   348                           	callstack 0
   349   000064                     strcpy@s:
   350                           	callstack 0
   351   000064                     ___fleq@ff2:
   352                           	callstack 0
   353   000064                     ___fladd@a:
   354                           	callstack 0
   355   000064                     ___fldiv@a:
   356                           	callstack 0
   357   000064                     ___flmul@a:
   358                           	callstack 0
   359                           
   360                           ; 4 bytes @ 0x4
   361   000064                     	ds	1
   362   000065                     ??_LCD_XY:
   363                           
   364                           ; 1 bytes @ 0x5
   365   000065                     	ds	1
   366   000066                     memcpy@tmp:
   367                           	callstack 0
   368   000066                     strcpy@d:
   369                           	callstack 0
   370                           
   371                           ; 2 bytes @ 0x6
   372   000066                     	ds	1
   373   000067                     LCD_XY@row:
   374                           	callstack 0
   375   000067                     memcpy@d:
   376                           	callstack 0
   377                           
   378                           ; 2 bytes @ 0x7
   379   000067                     	ds	1
   380   000068                     ??___fladd:
   381   000068                     ??___fldiv:
   382   000068                     ??___flmul:
   383   000068                     ??___fleq:
   384   000068                     LCD_Out@column:
   385                           	callstack 0
   386   000068                     ___fltol@sign1:
   387                           	callstack 0
   388   000068                     ___fpclassifyf@e:
   389                           	callstack 0
   390                           
   391                           ; 2 bytes @ 0x8
   392   000068                     	ds	1
   393   000069                     ___fltol@exp1:
   394                           	callstack 0
   395   000069                     LCD_Out@text:
   396                           	callstack 0
   397   000069                     memcpy@s:
   398                           	callstack 0
   399   000069                     fputs@s:
   400                           	callstack 0
   401                           
   402                           ; 2 bytes @ 0x9
   403   000069                     	ds	1
   404   00006A                     ___fpclassifyf@u:
   405                           	callstack 0
   406                           
   407                           ; 4 bytes @ 0xA
   408   00006A                     	ds	1
   409   00006B                     LCD_Out@row:
   410                           	callstack 0
   411   00006B                     fputs@fp:
   412                           	callstack 0
   413                           
   414                           ; 2 bytes @ 0xB
   415   00006B                     	ds	1
   416   00006C                     ___fladd@signs:
   417                           	callstack 0
   418   00006C                     ___flmul@sign:
   419                           	callstack 0
   420   00006C                     ___fldiv@rem:
   421                           	callstack 0
   422                           
   423                           ; 4 bytes @ 0xC
   424   00006C                     	ds	1
   425   00006D                     ___fladd@aexp:
   426                           	callstack 0
   427   00006D                     ___flmul@aexp:
   428                           	callstack 0
   429   00006D                     fputs@c:
   430                           	callstack 0
   431                           
   432                           ; 1 bytes @ 0xD
   433   00006D                     	ds	1
   434   00006E                     ___fladd@bexp:
   435                           	callstack 0
   436   00006E                     fputs@i:
   437                           	callstack 0
   438   00006E                     ___flmul@grs:
   439                           	callstack 0
   440                           
   441                           ; 4 bytes @ 0xE
   442   00006E                     	ds	1
   443   00006F                     ___fladd@grs:
   444                           	callstack 0
   445                           
   446                           ; 1 bytes @ 0xF
   447   00006F                     	ds	1
   448   000070                     ___fldiv@sign:
   449                           	callstack 0
   450   000070                     pad@fp:
   451                           	callstack 0
   452                           
   453                           ; 2 bytes @ 0x10
   454   000070                     	ds	1
   455   000071                     ___fldiv@new_exp:
   456                           	callstack 0
   457                           
   458                           ; 2 bytes @ 0x11
   459   000071                     	ds	1
   460   000072                     ___flmul@bexp:
   461                           	callstack 0
   462   000072                     pad@buf:
   463                           	callstack 0
   464                           
   465                           ; 2 bytes @ 0x12
   466   000072                     	ds	1
   467   000073                     ___fldiv@grs:
   468                           	callstack 0
   469   000073                     ___flmul@prod:
   470                           	callstack 0
   471                           
   472                           ; 4 bytes @ 0x13
   473   000073                     	ds	1
   474   000074                     pad@p:
   475                           	callstack 0
   476                           
   477                           ; 2 bytes @ 0x14
   478   000074                     	ds	2
   479   000076                     ??_pad:
   480                           
   481                           ; 1 bytes @ 0x16
   482   000076                     	ds	1
   483   000077                     ___fldiv@bexp:
   484                           	callstack 0
   485   000077                     ___flmul@temp:
   486                           	callstack 0
   487   000077                     pad@i:
   488                           	callstack 0
   489                           
   490                           ; 2 bytes @ 0x17
   491   000077                     	ds	1
   492   000078                     ___fldiv@aexp:
   493                           	callstack 0
   494                           
   495                           ; 1 bytes @ 0x18
   496   000078                     	ds	1
   497   000079                     ?___flsub:
   498                           	callstack 0
   499   000079                     ?_floorf:
   500                           	callstack 0
   501   000079                     pad@w:
   502                           	callstack 0
   503   000079                     ___flge@ff1:
   504                           	callstack 0
   505   000079                     ___flsub@b:
   506                           	callstack 0
   507   000079                     floorf@x:
   508                           	callstack 0
   509                           
   510                           ; 4 bytes @ 0x19
   511   000079                     	ds	4
   512   00007D                     ??_floorf:
   513   00007D                     ___flge@ff2:
   514                           	callstack 0
   515   00007D                     ___flsub@a:
   516                           	callstack 0
   517                           
   518                           ; 4 bytes @ 0x1D
   519   00007D                     	ds	4
   520   000081                     ??___flge:
   521                           
   522                           ; 1 bytes @ 0x21
   523   000081                     	ds	2
   524   000083                     floorf@m:
   525                           	callstack 0
   526                           
   527                           ; 4 bytes @ 0x23
   528   000083                     	ds	4
   529   000087                     floorf@e:
   530                           	callstack 0
   531                           
   532                           ; 2 bytes @ 0x27
   533   000087                     	ds	2
   534   000089                     floorf@u:
   535                           	callstack 0
   536                           
   537                           ; 4 bytes @ 0x29
   538   000089                     	ds	4
   539   00008D                     efgtoa@fp:
   540                           	callstack 0
   541                           
   542                           ; 2 bytes @ 0x2D
   543   00008D                     	ds	2
   544   00008F                     efgtoa@f:
   545                           	callstack 0
   546                           
   547                           ; 4 bytes @ 0x2F
   548   00008F                     	ds	4
   549   000093                     efgtoa@c:
   550                           	callstack 0
   551                           
   552                           ; 1 bytes @ 0x33
   553   000093                     	ds	1
   554   000094                     ??_efgtoa:
   555                           
   556                           ; 1 bytes @ 0x34
   557   000094                     	ds	2
   558   000096                     efgtoa@ne:
   559                           	callstack 0
   560                           
   561                           ; 2 bytes @ 0x36
   562   000096                     	ds	2
   563   000098                     efgtoa@p:
   564                           	callstack 0
   565                           
   566                           ; 2 bytes @ 0x38
   567   000098                     	ds	2
   568   00009A                     efgtoa@t:
   569                           	callstack 0
   570                           
   571                           ; 2 bytes @ 0x3A
   572   00009A                     	ds	2
   573   00009C                     _efgtoa$1019:
   574                           	callstack 0
   575                           
   576                           ; 2 bytes @ 0x3C
   577   00009C                     	ds	2
   578   00009E                     efgtoa@pp:
   579                           	callstack 0
   580                           
   581                           ; 1 bytes @ 0x3E
   582   00009E                     	ds	1
   583   00009F                     efgtoa@mode:
   584                           	callstack 0
   585                           
   586                           ; 1 bytes @ 0x3F
   587   00009F                     	ds	1
   588   0000A0                     efgtoa@nmode:
   589                           	callstack 0
   590                           
   591                           ; 1 bytes @ 0x40
   592   0000A0                     	ds	1
   593   0000A1                     efgtoa@d:
   594                           	callstack 0
   595                           
   596                           ; 2 bytes @ 0x41
   597   0000A1                     	ds	2
   598   0000A3                     efgtoa@m:
   599                           	callstack 0
   600                           
   601                           ; 2 bytes @ 0x43
   602   0000A3                     	ds	2
   603   0000A5                     efgtoa@e:
   604                           	callstack 0
   605                           
   606                           ; 2 bytes @ 0x45
   607   0000A5                     	ds	2
   608   0000A7                     efgtoa@w:
   609                           	callstack 0
   610                           
   611                           ; 2 bytes @ 0x47
   612   0000A7                     	ds	2
   613   0000A9                     efgtoa@ou:
   614                           	callstack 0
   615                           
   616                           ; 4 bytes @ 0x49
   617   0000A9                     	ds	4
   618   0000AD                     efgtoa@i:
   619                           	callstack 0
   620                           
   621                           ; 2 bytes @ 0x4D
   622   0000AD                     	ds	2
   623   0000AF                     efgtoa@h:
   624                           	callstack 0
   625                           
   626                           ; 4 bytes @ 0x4F
   627   0000AF                     	ds	4
   628   0000B3                     efgtoa@l:
   629                           	callstack 0
   630                           
   631                           ; 4 bytes @ 0x53
   632   0000B3                     	ds	4
   633   0000B7                     efgtoa@sign:
   634                           	callstack 0
   635                           
   636                           ; 1 bytes @ 0x57
   637   0000B7                     	ds	1
   638   0000B8                     efgtoa@g:
   639                           	callstack 0
   640                           
   641                           ; 4 bytes @ 0x58
   642   0000B8                     	ds	4
   643   0000BC                     efgtoa@n:
   644                           	callstack 0
   645                           
   646                           ; 2 bytes @ 0x5C
   647   0000BC                     	ds	2
   648   0000BE                     efgtoa@u:
   649                           	callstack 0
   650                           
   651                           ; 4 bytes @ 0x5E
   652   0000BE                     	ds	4
   653   0000C2                     vfpfcnvrt@fp:
   654                           	callstack 0
   655                           
   656                           ; 2 bytes @ 0x62
   657   0000C2                     	ds	2
   658   0000C4                     vfpfcnvrt@fmt:
   659                           	callstack 0
   660                           
   661                           ; 2 bytes @ 0x64
   662   0000C4                     	ds	2
   663   0000C6                     vfpfcnvrt@ap:
   664                           	callstack 0
   665                           
   666                           ; 2 bytes @ 0x66
   667   0000C6                     	ds	2
   668   0000C8                     ??_vfpfcnvrt:
   669                           
   670                           ; 1 bytes @ 0x68
   671   0000C8                     	ds	2
   672   0000CA                     vfpfcnvrt@convarg:
   673                           	callstack 0
   674                           
   675                           ; 8 bytes @ 0x6A
   676   0000CA                     	ds	8
   677   0000D2                     vfpfcnvrt@c:
   678                           	callstack 0
   679                           
   680                           ; 1 bytes @ 0x72
   681   0000D2                     	ds	1
   682   0000D3                     vfpfcnvrt@cp:
   683                           	callstack 0
   684                           
   685                           ; 2 bytes @ 0x73
   686   0000D3                     	ds	2
   687   0000D5                     ?_vfprintf:
   688                           	callstack 0
   689   0000D5                     vfprintf@fp:
   690                           	callstack 0
   691                           
   692                           ; 2 bytes @ 0x75
   693   0000D5                     	ds	2
   694   0000D7                     vfprintf@fmt:
   695                           	callstack 0
   696                           
   697                           ; 2 bytes @ 0x77
   698   0000D7                     	ds	2
   699   0000D9                     vfprintf@ap:
   700                           	callstack 0
   701                           
   702                           ; 2 bytes @ 0x79
   703   0000D9                     	ds	2
   704   0000DB                     vfprintf@cfmt:
   705                           	callstack 0
   706                           
   707                           ; 2 bytes @ 0x7B
   708   0000DB                     	ds	2
   709   0000DD                     ?_sprintf:
   710                           	callstack 0
   711   0000DD                     sprintf@s:
   712                           	callstack 0
   713                           
   714                           ; 2 bytes @ 0x7D
   715   0000DD                     	ds	2
   716   0000DF                     sprintf@fmt:
   717                           	callstack 0
   718                           
   719                           ; 2 bytes @ 0x7F
   720   0000DF                     	ds	6
   721   0000E5                     sprintf@ap:
   722                           	callstack 0
   723                           
   724                           ; 2 bytes @ 0x85
   725   0000E5                     	ds	2
   726   0000E7                     sprintf@f:
   727                           	callstack 0
   728                           
   729                           ; 11 bytes @ 0x87
   730   0000E7                     	ds	11
   731   0000F2                     
   732                           ; 1 bytes @ 0x92
   733                           
   734                           	psect	cstackCOMRAM
   735   000001                     __pcstackCOMRAM:
   736                           	callstack 0
   737   000001                     ?___xxtofl:
   738                           	callstack 0
   739   000001                     ___xxtofl@val:
   740                           	callstack 0
   741                           
   742                           ; 4 bytes @ 0x0
   743   000001                     	ds	4
   744   000005                     ??___xxtofl:
   745                           
   746                           ; 1 bytes @ 0x4
   747   000005                     	ds	4
   748   000009                     ___xxtofl@sign:
   749                           	callstack 0
   750                           
   751                           ; 1 bytes @ 0x8
   752   000009                     	ds	1
   753   00000A                     ___xxtofl@exp:
   754                           	callstack 0
   755                           
   756                           ; 1 bytes @ 0x9
   757   00000A                     	ds	1
   758   00000B                     ___xxtofl@arg:
   759                           	callstack 0
   760                           
   761                           ; 4 bytes @ 0xA
   762   00000B                     	ds	4
   763   00000F                     ?i2___flmul:
   764                           	callstack 0
   765   00000F                     i2___flmul@b:
   766                           	callstack 0
   767                           
   768                           ; 4 bytes @ 0xE
   769   00000F                     	ds	4
   770   000013                     i2___flmul@a:
   771                           	callstack 0
   772                           
   773                           ; 4 bytes @ 0x12
   774   000013                     	ds	4
   775   000017                     ??i2___flmul:
   776                           
   777                           ; 1 bytes @ 0x16
   778   000017                     	ds	4
   779   00001B                     i2___flmul@sign:
   780                           	callstack 0
   781                           
   782                           ; 1 bytes @ 0x1A
   783   00001B                     	ds	1
   784   00001C                     i2___flmul@grs:
   785                           	callstack 0
   786                           
   787                           ; 4 bytes @ 0x1B
   788   00001C                     	ds	4
   789   000020                     i2___flmul@aexp:
   790                           	callstack 0
   791                           
   792                           ; 1 bytes @ 0x1F
   793   000020                     	ds	1
   794   000021                     i2___flmul@bexp:
   795                           	callstack 0
   796                           
   797                           ; 1 bytes @ 0x20
   798   000021                     	ds	1
   799   000022                     i2___flmul@prod:
   800                           	callstack 0
   801                           
   802                           ; 4 bytes @ 0x21
   803   000022                     	ds	4
   804   000026                     i2___flmul@temp:
   805                           	callstack 0
   806                           
   807                           ; 2 bytes @ 0x25
   808   000026                     	ds	2
   809   000028                     ??_captura:
   810                           
   811                           ; 1 bytes @ 0x27
   812   000028                     	ds	4
   813                           
   814 ;;
   815 ;;Main: autosize = 0, tempsize = 0, incstack = 0, save=0
   816 ;;
   817 ;; *************** function _main *****************
   818 ;; Defined at:
   819 ;;		line 28 in file "main.c"
   820 ;; Parameters:    Size  Location     Type
   821 ;;		None
   822 ;; Auto vars:     Size  Location     Type
   823 ;;		None
   824 ;; Return value:  Size  Location     Type
   825 ;;                  1    wreg      void 
   826 ;; Registers used:
   827 ;;		wreg, fsr1l, fsr1h, fsr2l, fsr2h, status,2, status,0, tblptrl, tblptrh, tblptru, prodl, prodh, cstack
   828 ;; Tracked objects:
   829 ;;		On entry : 0/0
   830 ;;		On exit  : 0/0
   831 ;;		Unchanged: 0/0
   832 ;; Data sizes:     COMRAM   BANK0   BANK1   BANK2   BANK3   BANK4   BANK5   BANK6   BANK7
   833 ;;      Params:         0       0       0       0       0       0       0       0       0
   834 ;;      Locals:         0       0       0       0       0       0       0       0       0
   835 ;;      Temps:          0       0       0       0       0       0       0       0       0
   836 ;;      Totals:         0       0       0       0       0       0       0       0       0
   837 ;;Total ram usage:        0 bytes
   838 ;; Hardware stack levels required when called: 10
   839 ;; This function calls:
   840 ;;		_LCD_Cmd
   841 ;;		_LCD_Init
   842 ;;		_LCD_Out
   843 ;;		_ccp1_config
   844 ;;		_config_interrups
   845 ;;		_config_timer1
   846 ;;		_sprintf
   847 ;;		_timer1_init
   848 ;; This function is called by:
   849 ;;		Startup code after reset
   850 ;; This function uses a non-reentrant model
   851 ;;
   852                           
   853                           	psect	text0
   854   00318A                     __ptext0:
   855                           	callstack 0
   856   00318A                     _main:
   857                           	callstack 21
   858   00318A                     
   859                           ;main.c: 29:     ADCON1 = 0x0F;
   860   00318A  0E0F               	movlw	15
   861   00318C  6EC1               	movwf	193,c	;volatile
   862   00318E                     
   863                           ;main.c: 30:     TRISC = 0xFF;
   864   00318E  6894               	setf	148,c	;volatile
   865   003190                     
   866                           ;main.c: 32:     config_interrups();
   867   003190  EC47  F01A         	call	_config_interrups	;wreg free
   868                           
   869                           ;main.c: 33:     config_timer1();
   870   003194  EC2C  F01A         	call	_config_timer1	;wreg free
   871                           
   872                           ;main.c: 34:     ccp1_config();
   873   003198  EC4C  F01A         	call	_ccp1_config	;wreg free
   874   00319C                     
   875                           ;main.c: 35:     timer1_init();
   876   00319C  EC51  F01A         	call	_timer1_init	;wreg free
   877   0031A0                     
   878                           ;main.c: 37:     timer1_init();
   879   0031A0  EC51  F01A         	call	_timer1_init	;wreg free
   880   0031A4                     
   881                           ;main.c: 38:     LCD_Init();
   882   0031A4  ECE6  F016         	call	_LCD_Init	;wreg free
   883   0031A8                     
   884                           ;main.c: 39:     LCD_Cmd(12);
   885   0031A8  0E0C               	movlw	12
   886   0031AA  EC35  F01A         	call	_LCD_Cmd
   887   0031AE                     l4961:
   888                           
   889                           ;main.c: 42:         sprintf(aux, "T: %f", periodo);
   890   0031AE  0E2C               	movlw	low _aux
   891   0031B0  0100               	movlb	0	; () banked
   892   0031B2  6FDD               	movwf	sprintf@s& (0+255),b
   893   0031B4  0E00               	movlw	high _aux
   894   0031B6  6FDE               	movwf	(sprintf@s+1)& (0+255),b
   895   0031B8  0E16               	movlw	low STR_1
   896   0031BA  6FDF               	movwf	sprintf@fmt& (0+255),b
   897   0031BC  0E08               	movlw	high STR_1
   898   0031BE  6FE0               	movwf	(sprintf@fmt+1)& (0+255),b
   899   0031C0  C0F6  F0E1         	movff	_periodo,?_sprintf+4
   900   0031C4  C0F7  F0E2         	movff	_periodo+1,?_sprintf+5
   901   0031C8  C0F8  F0E3         	movff	_periodo+2,?_sprintf+6
   902   0031CC  C0F9  F0E4         	movff	_periodo+3,?_sprintf+7
   903   0031D0  EC21  F019         	call	_sprintf	;wreg free
   904   0031D4                     
   905                           ;main.c: 43:         LCD_Out(2, 1, aux);
   906   0031D4  0E01               	movlw	1
   907   0031D6  0100               	movlb	0	; () banked
   908   0031D8  6F68               	movwf	LCD_Out@column& (0+255),b
   909   0031DA  0E2C               	movlw	low _aux
   910   0031DC  6F69               	movwf	LCD_Out@text& (0+255),b
   911   0031DE  0E00               	movlw	high _aux
   912   0031E0  6F6A               	movwf	(LCD_Out@text+1)& (0+255),b
   913   0031E2  0E02               	movlw	2
   914   0031E4  EC59  F018         	call	_LCD_Out
   915   0031E8  EFD7  F018         	goto	l4961
   916   0031EC  EF07  F000         	goto	start
   917   0031F0                     __end_of_main:
   918                           	callstack 0
   919                           
   920 ;; *************** function _timer1_init *****************
   921 ;; Defined at:
   922 ;;		line 68 in file "main.c"
   923 ;; Parameters:    Size  Location     Type
   924 ;;		None
   925 ;; Auto vars:     Size  Location     Type
   926 ;;		None
   927 ;; Return value:  Size  Location     Type
   928 ;;                  1    wreg      void 
   929 ;; Registers used:
   930 ;;		None
   931 ;; Tracked objects:
   932 ;;		On entry : 0/0
   933 ;;		On exit  : 0/0
   934 ;;		Unchanged: 0/0
   935 ;; Data sizes:     COMRAM   BANK0   BANK1   BANK2   BANK3   BANK4   BANK5   BANK6   BANK7
   936 ;;      Params:         0       0       0       0       0       0       0       0       0
   937 ;;      Locals:         0       0       0       0       0       0       0       0       0
   938 ;;      Temps:          0       0       0       0       0       0       0       0       0
   939 ;;      Totals:         0       0       0       0       0       0       0       0       0
   940 ;;Total ram usage:        0 bytes
   941 ;; Hardware stack levels used: 1
   942 ;; Hardware stack levels required when called: 2
   943 ;; This function calls:
   944 ;;		Nothing
   945 ;; This function is called by:
   946 ;;		_main
   947 ;; This function uses a non-reentrant model
   948 ;;
   949                           
   950                           	psect	text1
   951   0034A2                     __ptext1:
   952                           	callstack 0
   953   0034A2                     _timer1_init:
   954                           	callstack 28
   955   0034A2                     
   956                           ;main.c: 69:     T1CONbits.TMR1ON = 1;
   957   0034A2  80CD               	bsf	205,0,c	;volatile
   958   0034A4  0012               	return		;funcret
   959   0034A6                     __end_of_timer1_init:
   960                           	callstack 0
   961                           
   962 ;; *************** function _sprintf *****************
   963 ;; Defined at:
   964 ;;		line 9 in file "C:\Program Files\Microchip\xc8\v2.40\pic\sources\c99\common\nf_sprintf.c"
   965 ;; Parameters:    Size  Location     Type
   966 ;;  s               2  125[BANK0 ] PTR unsigned char 
   967 ;;		 -> aux(20), 
   968 ;;  fmt             2  127[BANK0 ] PTR const unsigned char 
   969 ;;		 -> STR_1(6), 
   970 ;; Auto vars:     Size  Location     Type
   971 ;;  f              11  135[BANK0 ] struct _IO_FILE
   972 ;;  ap              2  133[BANK0 ] PTR void [1]
   973 ;;		 -> ?_sprintf(2), 
   974 ;;  ret             2    0        int 
   975 ;; Return value:  Size  Location     Type
   976 ;;                  2  125[BANK0 ] int 
   977 ;; Registers used:
   978 ;;		wreg, fsr1l, fsr1h, fsr2l, fsr2h, status,2, status,0, tblptrl, tblptrh, tblptru, prodl, prodh, cstack
   979 ;; Tracked objects:
   980 ;;		On entry : 0/0
   981 ;;		On exit  : 0/0
   982 ;;		Unchanged: 0/0
   983 ;; Data sizes:     COMRAM   BANK0   BANK1   BANK2   BANK3   BANK4   BANK5   BANK6   BANK7
   984 ;;      Params:         0       8       0       0       0       0       0       0       0
   985 ;;      Locals:         0      13       0       0       0       0       0       0       0
   986 ;;      Temps:          0       0       0       0       0       0       0       0       0
   987 ;;      Totals:         0      21       0       0       0       0       0       0       0
   988 ;;Total ram usage:       21 bytes
   989 ;; Hardware stack levels used: 1
   990 ;; Hardware stack levels required when called: 9
   991 ;; This function calls:
   992 ;;		_vfprintf
   993 ;; This function is called by:
   994 ;;		_main
   995 ;; This function uses a non-reentrant model
   996 ;;
   997                           
   998                           	psect	text2
   999   003242                     __ptext2:
  1000                           	callstack 0
  1001   003242                     _sprintf:
  1002                           	callstack 21
  1003   003242  0EE1               	movlw	low (?_sprintf+4)
  1004   003244  0100               	movlb	0	; () banked
  1005   003246  6FE5               	movwf	sprintf@ap& (0+255),b
  1006   003248  0E00               	movlw	high (?_sprintf+4)
  1007   00324A  6FE6               	movwf	(sprintf@ap+1)& (0+255),b
  1008   00324C  C0DD  F0E7         	movff	sprintf@s,sprintf@f
  1009   003250  C0DE  F0E8         	movff	sprintf@s+1,sprintf@f+1
  1010   003254                     
  1011                           ; BSR set to: 0
  1012   003254  0E00               	movlw	0
  1013   003256  6FEB               	movwf	(sprintf@f+4)& (0+255),b
  1014   003258  0E00               	movlw	0
  1015   00325A  6FEA               	movwf	(sprintf@f+3)& (0+255),b
  1016   00325C                     
  1017                           ; BSR set to: 0
  1018   00325C  0E00               	movlw	0
  1019   00325E  6FF1               	movwf	(sprintf@f+10)& (0+255),b
  1020   003260  0E00               	movlw	0
  1021   003262  6FF0               	movwf	(sprintf@f+9)& (0+255),b
  1022   003264                     
  1023                           ; BSR set to: 0
  1024   003264  0EE7               	movlw	low sprintf@f
  1025   003266  6FD5               	movwf	vfprintf@fp& (0+255),b
  1026   003268  0E00               	movlw	high sprintf@f
  1027   00326A  6FD6               	movwf	(vfprintf@fp+1)& (0+255),b
  1028   00326C  C0DF  F0D7         	movff	sprintf@fmt,vfprintf@fmt
  1029   003270  C0E0  F0D8         	movff	sprintf@fmt+1,vfprintf@fmt+1
  1030   003274  0EE5               	movlw	low sprintf@ap
  1031   003276  6FD9               	movwf	vfprintf@ap& (0+255),b
  1032   003278  0E00               	movlw	high sprintf@ap
  1033   00327A  6FDA               	movwf	(vfprintf@ap+1)& (0+255),b
  1034   00327C  EC4A  F019         	call	_vfprintf	;wreg free
  1035   003280  0100               	movlb	0	; () banked
  1036   003282  51EA               	movf	(sprintf@f+3)& (0+255),w,b
  1037   003284  25DD               	addwf	sprintf@s& (0+255),w,b
  1038   003286  6ED9               	movwf	fsr2l,c
  1039   003288  51EB               	movf	(sprintf@f+4)& (0+255),w,b
  1040   00328A  21DE               	addwfc	(sprintf@s+1)& (0+255),w,b
  1041   00328C  6EDA               	movwf	fsr2h,c
  1042   00328E  0E00               	movlw	0
  1043   003290  6EDF               	movwf	indf2,c
  1044   003292                     
  1045                           ; BSR set to: 0
  1046   003292  0012               	return		;funcret
  1047   003294                     __end_of_sprintf:
  1048                           	callstack 0
  1049                           
  1050 ;; *************** function _vfprintf *****************
  1051 ;; Defined at:
  1052 ;;		line 1520 in file "C:\Program Files\Microchip\xc8\v2.40\pic\sources\c99\common\doprnt.c"
  1053 ;; Parameters:    Size  Location     Type
  1054 ;;  fp              2  117[BANK0 ] PTR struct _IO_FILE
  1055 ;;		 -> sprintf@f(11), 
  1056 ;;  fmt             2  119[BANK0 ] PTR const unsigned char 
  1057 ;;		 -> STR_1(6), 
  1058 ;;  ap              2  121[BANK0 ] PTR PTR void 
  1059 ;;		 -> sprintf@ap(2), 
  1060 ;; Auto vars:     Size  Location     Type
  1061 ;;  cfmt            2  123[BANK0 ] PTR unsigned char 
  1062 ;;		 -> STR_1(6), 
  1063 ;; Return value:  Size  Location     Type
  1064 ;;                  2  117[BANK0 ] int 
  1065 ;; Registers used:
  1066 ;;		wreg, fsr1l, fsr1h, fsr2l, fsr2h, status,2, status,0, tblptrl, tblptrh, tblptru, prodl, prodh, cstack
  1067 ;; Tracked objects:
  1068 ;;		On entry : 0/0
  1069 ;;		On exit  : 0/0
  1070 ;;		Unchanged: 0/0
  1071 ;; Data sizes:     COMRAM   BANK0   BANK1   BANK2   BANK3   BANK4   BANK5   BANK6   BANK7
  1072 ;;      Params:         0       6       0       0       0       0       0       0       0
  1073 ;;      Locals:         0       2       0       0       0       0       0       0       0
  1074 ;;      Temps:          0       0       0       0       0       0       0       0       0
  1075 ;;      Totals:         0       8       0       0       0       0       0       0       0
  1076 ;;Total ram usage:        8 bytes
  1077 ;; Hardware stack levels used: 1
  1078 ;; Hardware stack levels required when called: 8
  1079 ;; This function calls:
  1080 ;;		_vfpfcnvrt
  1081 ;; This function is called by:
  1082 ;;		_sprintf
  1083 ;; This function uses a non-reentrant model
  1084 ;;
  1085                           
  1086                           	psect	text3
  1087   003294                     __ptext3:
  1088                           	callstack 0
  1089   003294                     _vfprintf:
  1090                           	callstack 21
  1091   003294                     
  1092                           ;C:\Program Files\Microchip\xc8\v2.40\pic\sources\c99\common\doprnt.c: 1520: int vfprint
      +                          f(FILE *fp, const char *fmt, va_list ap);C:\Program Files\Microchip\xc8\v2.40\pic\source
      +                          s\c99\common\doprnt.c: 1521: {;C:\Program Files\Microchip\xc8\v2.40\pic\sources\c99\comm
      +                          on\doprnt.c: 1523:     char *cfmt;;C:\Program Files\Microchip\xc8\v2.40\pic\sources\c99\
      +                          common\doprnt.c: 1525:     cfmt = (char *)fmt;
  1093   003294  C0D7  F0DB         	movff	vfprintf@fmt,vfprintf@cfmt
  1094   003298  C0D8  F0DC         	movff	vfprintf@fmt+1,vfprintf@cfmt+1
  1095                           
  1096                           ;C:\Program Files\Microchip\xc8\v2.40\pic\sources\c99\common\doprnt.c: 1529:     while (
      +                          *cfmt) {
  1097   00329C  EF5F  F019         	goto	l4879
  1098   0032A0                     l4877:
  1099                           
  1100                           ;C:\Program Files\Microchip\xc8\v2.40\pic\sources\c99\common\doprnt.c: 1533:    vfpfcnvr
      +                          t(fp, &cfmt, ap);
  1101   0032A0  C0D5  F0C2         	movff	vfprintf@fp,vfpfcnvrt@fp
  1102   0032A4  C0D6  F0C3         	movff	vfprintf@fp+1,vfpfcnvrt@fp+1
  1103   0032A8  0EDB               	movlw	low vfprintf@cfmt
  1104   0032AA  0100               	movlb	0	; () banked
  1105   0032AC  6FC4               	movwf	vfpfcnvrt@fmt& (0+255),b
  1106   0032AE  0E00               	movlw	high vfprintf@cfmt
  1107   0032B0  6FC5               	movwf	(vfpfcnvrt@fmt+1)& (0+255),b
  1108   0032B2  C0D9  F0C6         	movff	vfprintf@ap,vfpfcnvrt@ap
  1109   0032B6  C0DA  F0C7         	movff	vfprintf@ap+1,vfpfcnvrt@ap+1
  1110   0032BA  EC6E  F011         	call	_vfpfcnvrt	;wreg free
  1111   0032BE                     l4879:
  1112                           
  1113                           ;C:\Program Files\Microchip\xc8\v2.40\pic\sources\c99\common\doprnt.c: 1529:     while (
      +                          *cfmt) {
  1114   0032BE  C0DB  FFF6         	movff	vfprintf@cfmt,tblptrl
  1115   0032C2  C0DC  FFF7         	movff	vfprintf@cfmt+1,tblptrh
  1116   0032C6                     	if	0	;tblptru may be non-zero
  1117   0032C6                     	endif
  1118   0032C6                     	if	0	;tblptru may be non-zero
  1119   0032C6                     	endif
  1120   0032C6  0008               	tblrd		*
  1121   0032C8  50F5               	movf	tablat,w,c
  1122   0032CA  0900               	iorlw	0
  1123   0032CC  A4D8               	btfss	status,2,c
  1124   0032CE  EF6B  F019         	goto	u5371
  1125   0032D2  EF6D  F019         	goto	u5370
  1126   0032D6                     u5371:
  1127   0032D6  EF50  F019         	goto	l4877
  1128   0032DA                     u5370:
  1129   0032DA                     
  1130                           ;C:\Program Files\Microchip\xc8\v2.40\pic\sources\c99\common\doprnt.c: 1538:  return 0;
  1131   0032DA  0E00               	movlw	0
  1132   0032DC  0100               	movlb	0	; () banked
  1133   0032DE  6FD6               	movwf	(?_vfprintf+1)& (0+255),b
  1134   0032E0  0E00               	movlw	0
  1135   0032E2  6FD5               	movwf	?_vfprintf& (0+255),b
  1136   0032E4                     
  1137                           ; BSR set to: 0
  1138   0032E4  0012               	return		;funcret
  1139   0032E6                     __end_of_vfprintf:
  1140                           	callstack 0
  1141                           
  1142 ;; *************** function _vfpfcnvrt *****************
  1143 ;; Defined at:
  1144 ;;		line 1007 in file "C:\Program Files\Microchip\xc8\v2.40\pic\sources\c99\common\doprnt.c"
  1145 ;; Parameters:    Size  Location     Type
  1146 ;;  fp              2   98[BANK0 ] PTR struct _IO_FILE
  1147 ;;		 -> sprintf@f(11), 
  1148 ;;  fmt             2  100[BANK0 ] PTR PTR unsigned char 
  1149 ;;		 -> vfprintf@cfmt(2), 
  1150 ;;  ap              2  102[BANK0 ] PTR PTR void 
  1151 ;;		 -> sprintf@ap(2), 
  1152 ;; Auto vars:     Size  Location     Type
  1153 ;;  convarg         8  106[BANK0 ] struct .
  1154 ;;  cp              2  115[BANK0 ] PTR unsigned char 
  1155 ;;		 -> STR_1(6), 
  1156 ;;  i               2    0        int 
  1157 ;;  done            2    0        int 
  1158 ;;  c               1  114[BANK0 ] unsigned char 
  1159 ;; Return value:  Size  Location     Type
  1160 ;;                  1    wreg      void 
  1161 ;; Registers used:
  1162 ;;		wreg, fsr1l, fsr1h, fsr2l, fsr2h, status,2, status,0, tblptrl, tblptrh, tblptru, prodl, prodh, cstack
  1163 ;; Tracked objects:
  1164 ;;		On entry : 0/0
  1165 ;;		On exit  : 0/0
  1166 ;;		Unchanged: 0/0
  1167 ;; Data sizes:     COMRAM   BANK0   BANK1   BANK2   BANK3   BANK4   BANK5   BANK6   BANK7
  1168 ;;      Params:         0       6       0       0       0       0       0       0       0
  1169 ;;      Locals:         0      11       0       0       0       0       0       0       0
  1170 ;;      Temps:          0       2       0       0       0       0       0       0       0
  1171 ;;      Totals:         0      19       0       0       0       0       0       0       0
  1172 ;;Total ram usage:       19 bytes
  1173 ;; Hardware stack levels used: 1
  1174 ;; Hardware stack levels required when called: 7
  1175 ;; This function calls:
  1176 ;;		_efgtoa
  1177 ;;		_fputc
  1178 ;; This function is called by:
  1179 ;;		_vfprintf
  1180 ;; This function uses a non-reentrant model
  1181 ;;
  1182                           
  1183                           	psect	text4
  1184   0022DC                     __ptext4:
  1185                           	callstack 0
  1186   0022DC                     _vfpfcnvrt:
  1187                           	callstack 21
  1188   0022DC                     
  1189                           ;C:\Program Files\Microchip\xc8\v2.40\pic\sources\c99\common\doprnt.c: 1007: vfpfcnvrt(F
      +                          ILE *fp, char *fmt[], va_list ap);C:\Program Files\Microchip\xc8\v2.40\pic\sources\c99\c
      +                          ommon\doprnt.c: 1008: {;C:\Program Files\Microchip\xc8\v2.40\pic\sources\c99\common\dopr
      +                          nt.c: 1009:     char c, *cp;;C:\Program Files\Microchip\xc8\v2.40\pic\sources\c99\common
      +                          \doprnt.c: 1010:     int done, i;;C:\Program Files\Microchip\xc8\v2.40\pic\sources\c99\c
      +                          ommon\doprnt.c: 1016:  } convarg;;C:\Program Files\Microchip\xc8\v2.40\pic\sources\c99\c
      +                          ommon\doprnt.c: 1019:     if ((*fmt)[0] == '%') {
  1190   0022DC  C0C4  FFD9         	movff	vfpfcnvrt@fmt,fsr2l
  1191   0022E0  C0C5  FFDA         	movff	vfpfcnvrt@fmt+1,fsr2h
  1192   0022E4  CFDE FFF6          	movff	postinc2,tblptrl
  1193   0022E8  CFDD FFF7          	movff	postdec2,tblptrh
  1194   0022EC                     	if	0	;tblptru may be non-zero
  1195   0022EC                     	endif
  1196   0022EC                     	if	0	;tblptru may be non-zero
  1197   0022EC                     	endif
  1198   0022EC  0008               	tblrd		*
  1199   0022EE  50F5               	movf	tablat,w,c
  1200   0022F0  0A25               	xorlw	37
  1201   0022F2  A4D8               	btfss	status,2,c
  1202   0022F4  EF7E  F011         	goto	u5351
  1203   0022F8  EF80  F011         	goto	u5350
  1204   0022FC                     u5351:
  1205   0022FC  EF65  F012         	goto	l4819
  1206   002300                     u5350:
  1207   002300                     
  1208                           ;C:\Program Files\Microchip\xc8\v2.40\pic\sources\c99\common\doprnt.c: 1020:         ++*
      +                          fmt;
  1209   002300  C0C4  FFD9         	movff	vfpfcnvrt@fmt,fsr2l
  1210   002304  C0C5  FFDA         	movff	vfpfcnvrt@fmt+1,fsr2h
  1211   002308  2ADE               	incf	postinc2,f,c
  1212   00230A  0E00               	movlw	0
  1213   00230C  22DD               	addwfc	postdec2,f,c
  1214   00230E                     
  1215                           ;C:\Program Files\Microchip\xc8\v2.40\pic\sources\c99\common\doprnt.c: 1022:         fla
      +                          gs = width = 0;
  1216   00230E  0E00               	movlw	0
  1217   002310  0100               	movlb	0	; () banked
  1218   002312  6FFB               	movwf	(_width+1)& (0+255),b
  1219   002314  0E00               	movlw	0
  1220   002316  6FFA               	movwf	_width& (0+255),b
  1221   002318  C0FA  F0FE         	movff	_width,_flags
  1222   00231C                     
  1223                           ; BSR set to: 0
  1224                           ;C:\Program Files\Microchip\xc8\v2.40\pic\sources\c99\common\doprnt.c: 1023:         pre
      +                          c = -1;
  1225   00231C  69FC               	setf	_prec& (0+255),b
  1226   00231E  69FD               	setf	(_prec+1)& (0+255),b
  1227   002320                     
  1228                           ; BSR set to: 0
  1229                           ;C:\Program Files\Microchip\xc8\v2.40\pic\sources\c99\common\doprnt.c: 1392:   cp = *fmt
      +                          ;
  1230   002320  C0C4  FFD9         	movff	vfpfcnvrt@fmt,fsr2l
  1231   002324  C0C5  FFDA         	movff	vfpfcnvrt@fmt+1,fsr2h
  1232   002328  CFDE F0D3          	movff	postinc2,vfpfcnvrt@cp
  1233   00232C  CFDD F0D4          	movff	postdec2,vfpfcnvrt@cp+1
  1234   002330                     
  1235                           ; BSR set to: 0
  1236                           ;C:\Program Files\Microchip\xc8\v2.40\pic\sources\c99\common\doprnt.c: 1393:   c = *cp;
  1237   002330  C0D3  FFF6         	movff	vfpfcnvrt@cp,tblptrl
  1238   002334  C0D4  FFF7         	movff	vfpfcnvrt@cp+1,tblptrh
  1239   002338                     	if	0	;tblptru may be non-zero
  1240   002338                     	endif
  1241   002338                     	if	0	;tblptru may be non-zero
  1242   002338                     	endif
  1243   002338  0008               	tblrd		*
  1244   00233A  CFF5 F0D2          	movff	tablat,vfpfcnvrt@c
  1245                           
  1246                           ;C:\Program Files\Microchip\xc8\v2.40\pic\sources\c99\common\doprnt.c: 1394:   switch(c)
      +                           {
  1247   00233E  EFAD  F011         	goto	l4793
  1248   002342                     l4785:
  1249                           
  1250                           ; BSR set to: 0
  1251                           ;C:\Program Files\Microchip\xc8\v2.40\pic\sources\c99\common\doprnt.c: 1398:     cp++;
  1252   002342  4BD3               	infsnz	vfpfcnvrt@cp& (0+255),f,b
  1253   002344  2BD4               	incf	(vfpfcnvrt@cp+1)& (0+255),f,b
  1254                           
  1255                           ;C:\Program Files\Microchip\xc8\v2.40\pic\sources\c99\common\doprnt.c: 1399:     break;
  1256   002346  EFC6  F011         	goto	l4795
  1257   00234A                     l4787:
  1258                           
  1259                           ; BSR set to: 0
  1260                           ;C:\Program Files\Microchip\xc8\v2.40\pic\sources\c99\common\doprnt.c: 1424:     c = 'l'
      +                          ;
  1261   00234A  0E6C               	movlw	108
  1262   00234C  6FD2               	movwf	vfpfcnvrt@c& (0+255),b
  1263                           
  1264                           ;C:\Program Files\Microchip\xc8\v2.40\pic\sources\c99\common\doprnt.c: 1425:     break;
  1265   00234E  EFC6  F011         	goto	l4795
  1266   002352                     l4789:
  1267                           
  1268                           ; BSR set to: 0
  1269                           ;C:\Program Files\Microchip\xc8\v2.40\pic\sources\c99\common\doprnt.c: 1427:     c = 0;
  1270   002352  0E00               	movlw	0
  1271   002354  6FD2               	movwf	vfpfcnvrt@c& (0+255),b
  1272                           
  1273                           ;C:\Program Files\Microchip\xc8\v2.40\pic\sources\c99\common\doprnt.c: 1428:     break;
  1274   002356  EFC6  F011         	goto	l4795
  1275   00235A                     l4793:
  1276                           
  1277                           ; BSR set to: 0
  1278   00235A  51D2               	movf	vfpfcnvrt@c& (0+255),w,b
  1279   00235C  6FC8               	movwf	??_vfpfcnvrt& (0+255),b
  1280   00235E  6BC9               	clrf	(??_vfpfcnvrt+1)& (0+255),b
  1281                           
  1282                           ; Switch on 2 bytes has been partitioned into a top level switch of size 1, and 1 sub-sw
      +                          itches
  1283                           ; Switch size 1, requested type "simple"
  1284                           ; Number of cases is 1, Range of values is 0 to 0
  1285                           ; switch strategies available:
  1286                           ; Name         Instructions Cycles
  1287                           ; simple_byte            4     3 (average)
  1288                           ;	Chosen strategy is simple_byte
  1289   002360  51C9               	movf	(??_vfpfcnvrt+1)& (0+255),w,b
  1290   002362  0A00               	xorlw	0	; case 0
  1291   002364  B4D8               	btfsc	status,2,c
  1292   002366  EFB7  F011         	goto	l5093
  1293   00236A  EFA9  F011         	goto	l4789
  1294   00236E                     l5093:
  1295                           
  1296                           ; BSR set to: 0
  1297                           ; Switch size 1, requested type "simple"
  1298                           ; Number of cases is 3, Range of values is 76 to 108
  1299                           ; switch strategies available:
  1300                           ; Name         Instructions Cycles
  1301                           ; simple_byte           10     6 (average)
  1302                           ;	Chosen strategy is simple_byte
  1303   00236E  51C8               	movf	??_vfpfcnvrt& (0+255),w,b
  1304   002370  0A4C               	xorlw	76	; case 76
  1305   002372  B4D8               	btfsc	status,2,c
  1306   002374  EFA1  F011         	goto	l4785
  1307   002378  0A2A               	xorlw	42	; case 102
  1308   00237A  B4D8               	btfsc	status,2,c
  1309   00237C  EFA5  F011         	goto	l4787
  1310   002380  0A0A               	xorlw	10	; case 108
  1311   002382  B4D8               	btfsc	status,2,c
  1312   002384  EFA1  F011         	goto	l4785
  1313   002388  EFA9  F011         	goto	l4789
  1314   00238C                     l4795:
  1315                           
  1316                           ; BSR set to: 0
  1317   00238C  C0D3  FFF6         	movff	vfpfcnvrt@cp,tblptrl
  1318   002390  C0D4  FFF7         	movff	vfpfcnvrt@cp+1,tblptrh
  1319   002394                     	if	0	;tblptru may be non-zero
  1320   002394                     	endif
  1321   002394                     	if	0	;tblptru may be non-zero
  1322   002394                     	endif
  1323   002394  0008               	tblrd		*
  1324   002396  50F5               	movf	tablat,w,c
  1325   002398  0A66               	xorlw	102
  1326   00239A  A4D8               	btfss	status,2,c
  1327   00239C  EFD2  F011         	goto	u5361
  1328   0023A0  EFD4  F011         	goto	u5360
  1329   0023A4                     u5361:
  1330   0023A4  EF5C  F012         	goto	l4815
  1331   0023A8                     u5360:
  1332   0023A8  EF0A  F012         	goto	l4803
  1333   0023AC                     l4797:
  1334                           
  1335                           ; BSR set to: 0
  1336                           ;C:\Program Files\Microchip\xc8\v2.40\pic\sources\c99\common\doprnt.c: 1459:      convar
      +                          g.f = (long double)(*(double *)__va_arg(*(double **)ap, (double)0));
  1337   0023AC  C0C6  FFD9         	movff	vfpfcnvrt@ap,fsr2l
  1338   0023B0  C0C7  FFDA         	movff	vfpfcnvrt@ap+1,fsr2h
  1339   0023B4  CFDF F0C8          	movff	indf2,??_vfpfcnvrt
  1340   0023B8  0E04               	movlw	4
  1341   0023BA  26DE               	addwf	postinc2,f,c
  1342   0023BC  CFDF F0C9          	movff	indf2,??_vfpfcnvrt+1
  1343   0023C0  0E00               	movlw	0
  1344   0023C2  22DD               	addwfc	postdec2,f,c
  1345   0023C4  C0C8  FFD9         	movff	??_vfpfcnvrt,fsr2l
  1346   0023C8  C0C9  FFDA         	movff	??_vfpfcnvrt+1,fsr2h
  1347   0023CC  CFDE F0CA          	movff	postinc2,vfpfcnvrt@convarg
  1348   0023D0  CFDE F0CB          	movff	postinc2,vfpfcnvrt@convarg+1
  1349   0023D4  CFDE F0CC          	movff	postinc2,vfpfcnvrt@convarg+2
  1350   0023D8  CFDE F0CD          	movff	postinc2,vfpfcnvrt@convarg+3
  1351                           
  1352                           ;C:\Program Files\Microchip\xc8\v2.40\pic\sources\c99\common\doprnt.c: 1460:      break;
  1353   0023DC  EF1F  F012         	goto	l4805
  1354   0023E0                     l4799:
  1355                           
  1356                           ; BSR set to: 0
  1357                           ;C:\Program Files\Microchip\xc8\v2.40\pic\sources\c99\common\doprnt.c: 1462:      convar
      +                          g.f = (long double)(*(long double *)__va_arg(*(long double **)ap, (long double)0));
  1358   0023E0  C0C6  FFD9         	movff	vfpfcnvrt@ap,fsr2l
  1359   0023E4  C0C7  FFDA         	movff	vfpfcnvrt@ap+1,fsr2h
  1360   0023E8  CFDF F0C8          	movff	indf2,??_vfpfcnvrt
  1361   0023EC  0E04               	movlw	4
  1362   0023EE  26DE               	addwf	postinc2,f,c
  1363   0023F0  CFDF F0C9          	movff	indf2,??_vfpfcnvrt+1
  1364   0023F4  0E00               	movlw	0
  1365   0023F6  22DD               	addwfc	postdec2,f,c
  1366   0023F8  C0C8  FFD9         	movff	??_vfpfcnvrt,fsr2l
  1367   0023FC  C0C9  FFDA         	movff	??_vfpfcnvrt+1,fsr2h
  1368   002400  CFDE F0CA          	movff	postinc2,vfpfcnvrt@convarg
  1369   002404  CFDE F0CB          	movff	postinc2,vfpfcnvrt@convarg+1
  1370   002408  CFDE F0CC          	movff	postinc2,vfpfcnvrt@convarg+2
  1371   00240C  CFDE F0CD          	movff	postinc2,vfpfcnvrt@convarg+3
  1372                           
  1373                           ;C:\Program Files\Microchip\xc8\v2.40\pic\sources\c99\common\doprnt.c: 1463:      break;
  1374   002410  EF1F  F012         	goto	l4805
  1375   002414                     l4803:
  1376                           
  1377                           ; BSR set to: 0
  1378   002414  51D2               	movf	vfpfcnvrt@c& (0+255),w,b
  1379   002416  6FC8               	movwf	??_vfpfcnvrt& (0+255),b
  1380   002418  6BC9               	clrf	(??_vfpfcnvrt+1)& (0+255),b
  1381                           
  1382                           ; Switch on 2 bytes has been partitioned into a top level switch of size 1, and 1 sub-sw
      +                          itches
  1383                           ; Switch size 1, requested type "simple"
  1384                           ; Number of cases is 1, Range of values is 0 to 0
  1385                           ; switch strategies available:
  1386                           ; Name         Instructions Cycles
  1387                           ; simple_byte            4     3 (average)
  1388                           ;	Chosen strategy is simple_byte
  1389   00241A  51C9               	movf	(??_vfpfcnvrt+1)& (0+255),w,b
  1390   00241C  0A00               	xorlw	0	; case 0
  1391   00241E  B4D8               	btfsc	status,2,c
  1392   002420  EF14  F012         	goto	l5095
  1393   002424  EF1F  F012         	goto	l4805
  1394   002428                     l5095:
  1395                           
  1396                           ; BSR set to: 0
  1397                           ; Switch size 1, requested type "simple"
  1398                           ; Number of cases is 2, Range of values is 76 to 108
  1399                           ; switch strategies available:
  1400                           ; Name         Instructions Cycles
  1401                           ; simple_byte            7     4 (average)
  1402                           ;	Chosen strategy is simple_byte
  1403   002428  51C8               	movf	??_vfpfcnvrt& (0+255),w,b
  1404   00242A  0A4C               	xorlw	76	; case 76
  1405   00242C  B4D8               	btfsc	status,2,c
  1406   00242E  EFF0  F011         	goto	l4799
  1407   002432  0A20               	xorlw	32	; case 108
  1408   002434  B4D8               	btfsc	status,2,c
  1409   002436  EFD6  F011         	goto	l4797
  1410   00243A  EF1F  F012         	goto	l4805
  1411   00243E                     l4805:
  1412                           
  1413                           ; BSR set to: 0
  1414                           ;C:\Program Files\Microchip\xc8\v2.40\pic\sources\c99\common\doprnt.c: 1465:    *fmt = c
      +                          p+1;
  1415   00243E  0E01               	movlw	1
  1416   002440  25D3               	addwf	vfpfcnvrt@cp& (0+255),w,b
  1417   002442  6FC8               	movwf	??_vfpfcnvrt& (0+255),b
  1418   002444  0E00               	movlw	0
  1419   002446  21D4               	addwfc	(vfpfcnvrt@cp+1)& (0+255),w,b
  1420   002448  6FC9               	movwf	(??_vfpfcnvrt+1)& (0+255),b
  1421   00244A  C0C4  FFD9         	movff	vfpfcnvrt@fmt,fsr2l
  1422   00244E  C0C5  FFDA         	movff	vfpfcnvrt@fmt+1,fsr2h
  1423   002452  C0C8  FFDE         	movff	??_vfpfcnvrt,postinc2
  1424   002456  C0C9  FFDD         	movff	??_vfpfcnvrt+1,postdec2
  1425                           
  1426                           ;C:\Program Files\Microchip\xc8\v2.40\pic\sources\c99\common\doprnt.c: 1466:    switch (
      +                          *cp) {
  1427   00245A  EF46  F012         	goto	l4813
  1428   00245E                     l4807:
  1429                           
  1430                           ; BSR set to: 0
  1431                           ;C:\Program Files\Microchip\xc8\v2.40\pic\sources\c99\common\doprnt.c: 1493:      return
      +                           (void) efgtoa(fp, convarg.f, *cp);;	Return value of _vfpfcnvrt is never used
  1432   00245E  C0C2  F08D         	movff	vfpfcnvrt@fp,efgtoa@fp
  1433   002462  C0C3  F08E         	movff	vfpfcnvrt@fp+1,efgtoa@fp+1
  1434   002466  C0CA  F08F         	movff	vfpfcnvrt@convarg,efgtoa@f
  1435   00246A  C0CB  F090         	movff	vfpfcnvrt@convarg+1,efgtoa@f+1
  1436   00246E  C0CC  F091         	movff	vfpfcnvrt@convarg+2,efgtoa@f+2
  1437   002472  C0CD  F092         	movff	vfpfcnvrt@convarg+3,efgtoa@f+3
  1438   002476  C0D3  FFF6         	movff	vfpfcnvrt@cp,tblptrl
  1439   00247A  C0D4  FFF7         	movff	vfpfcnvrt@cp+1,tblptrh
  1440   00247E                     	if	0	;tblptru may be non-zero
  1441   00247E                     	endif
  1442   00247E                     	if	0	;tblptru may be non-zero
  1443   00247E                     	endif
  1444   00247E  0008               	tblrd		*
  1445   002480  CFF5 F093          	movff	tablat,efgtoa@c
  1446   002484  EC13  F004         	call	_efgtoa	;wreg free
  1447   002488  EF7A  F012         	goto	l904
  1448   00248C                     l4813:
  1449                           
  1450                           ; BSR set to: 0
  1451   00248C  C0D3  FFF6         	movff	vfpfcnvrt@cp,tblptrl
  1452   002490  C0D4  FFF7         	movff	vfpfcnvrt@cp+1,tblptrh
  1453   002494                     	if	0	;tblptru may be non-zero
  1454   002494                     	endif
  1455   002494                     	if	0	;tblptru may be non-zero
  1456   002494                     	endif
  1457   002494  0008               	tblrd		*
  1458   002496  50F5               	movf	tablat,w,c
  1459   002498  6FC8               	movwf	??_vfpfcnvrt& (0+255),b
  1460   00249A  6BC9               	clrf	(??_vfpfcnvrt+1)& (0+255),b
  1461                           
  1462                           ; Switch on 2 bytes has been partitioned into a top level switch of size 1, and 1 sub-sw
      +                          itches
  1463                           ; Switch size 1, requested type "simple"
  1464                           ; Number of cases is 1, Range of values is 0 to 0
  1465                           ; switch strategies available:
  1466                           ; Name         Instructions Cycles
  1467                           ; simple_byte            4     3 (average)
  1468                           ;	Chosen strategy is simple_byte
  1469   00249C  51C9               	movf	(??_vfpfcnvrt+1)& (0+255),w,b
  1470   00249E  0A00               	xorlw	0	; case 0
  1471   0024A0  B4D8               	btfsc	status,2,c
  1472   0024A2  EF55  F012         	goto	l5097
  1473   0024A6  EF5C  F012         	goto	l4815
  1474   0024AA                     l5097:
  1475                           
  1476                           ; BSR set to: 0
  1477                           ; Switch size 1, requested type "simple"
  1478                           ; Number of cases is 1, Range of values is 102 to 102
  1479                           ; switch strategies available:
  1480                           ; Name         Instructions Cycles
  1481                           ; simple_byte            4     3 (average)
  1482                           ;	Chosen strategy is simple_byte
  1483   0024AA  51C8               	movf	??_vfpfcnvrt& (0+255),w,b
  1484   0024AC  0A66               	xorlw	102	; case 102
  1485   0024AE  B4D8               	btfsc	status,2,c
  1486   0024B0  EF2F  F012         	goto	l4807
  1487   0024B4  EF5C  F012         	goto	l4815
  1488   0024B8                     l4815:
  1489                           
  1490                           ;C:\Program Files\Microchip\xc8\v2.40\pic\sources\c99\common\doprnt.c: 1509:         ++*
      +                          fmt;
  1491   0024B8  C0C4  FFD9         	movff	vfpfcnvrt@fmt,fsr2l
  1492   0024BC  C0C5  FFDA         	movff	vfpfcnvrt@fmt+1,fsr2h
  1493   0024C0  2ADE               	incf	postinc2,f,c
  1494   0024C2  0E00               	movlw	0
  1495   0024C4  22DD               	addwfc	postdec2,f,c
  1496   0024C6  EF7A  F012         	goto	l904
  1497   0024CA                     l4819:
  1498                           
  1499                           ;C:\Program Files\Microchip\xc8\v2.40\pic\sources\c99\common\doprnt.c: 1514:     fputc((
      +                          int)(*fmt)[0], fp);
  1500   0024CA  C0C4  FFD9         	movff	vfpfcnvrt@fmt,fsr2l
  1501   0024CE  C0C5  FFDA         	movff	vfpfcnvrt@fmt+1,fsr2h
  1502   0024D2  CFDE FFF6          	movff	postinc2,tblptrl
  1503   0024D6  CFDD FFF7          	movff	postdec2,tblptrh
  1504   0024DA                     	if	0	;tblptru may be non-zero
  1505   0024DA                     	endif
  1506   0024DA                     	if	0	;tblptru may be non-zero
  1507   0024DA                     	endif
  1508   0024DA  0008               	tblrd		*
  1509   0024DC  50F5               	movf	tablat,w,c
  1510   0024DE  0100               	movlb	0	; () banked
  1511   0024E0  6F60               	movwf	fputc@c& (0+255),b
  1512   0024E2  6B61               	clrf	(fputc@c+1)& (0+255),b
  1513   0024E4  C0C2  F062         	movff	vfpfcnvrt@fp,fputc@fp
  1514   0024E8  C0C3  F063         	movff	vfpfcnvrt@fp+1,fputc@fp+1
  1515   0024EC  EC80  F016         	call	_fputc	;wreg free
  1516   0024F0  EF5C  F012         	goto	l4815
  1517   0024F4                     l904:
  1518   0024F4  0012               	return		;funcret
  1519   0024F6                     __end_of_vfpfcnvrt:
  1520                           	callstack 0
  1521                           
  1522 ;; *************** function _efgtoa *****************
  1523 ;; Defined at:
  1524 ;;		line 506 in file "C:\Program Files\Microchip\xc8\v2.40\pic\sources\c99\common\doprnt.c"
  1525 ;; Parameters:    Size  Location     Type
  1526 ;;  fp              2   45[BANK0 ] PTR struct _IO_FILE
  1527 ;;		 -> sprintf@f(11), 
  1528 ;;  f               4   47[BANK0 ] PTR struct _IO_FILE
  1529 ;;  c               1   51[BANK0 ] unsigned char 
  1530 ;; Auto vars:     Size  Location     Type
  1531 ;;  u               4   94[BANK0 ] struct flui
  1532 ;;  g               4   88[BANK0 ] struct flui
  1533 ;;  l               4   83[BANK0 ] struct flui
  1534 ;;  h               4   79[BANK0 ] struct flui
  1535 ;;  ou              4   73[BANK0 ] struct flui
  1536 ;;  n               2   92[BANK0 ] int 
  1537 ;;  i               2   77[BANK0 ] int 
  1538 ;;  w               2   71[BANK0 ] int 
  1539 ;;  e               2   69[BANK0 ] int 
  1540 ;;  m               2   67[BANK0 ] int 
  1541 ;;  d               2   65[BANK0 ] int 
  1542 ;;  t               2   58[BANK0 ] int 
  1543 ;;  p               2   56[BANK0 ] int 
  1544 ;;  ne              2   54[BANK0 ] int 
  1545 ;;  sign            1   87[BANK0 ] unsigned char 
  1546 ;;  nmode           1   64[BANK0 ] unsigned char 
  1547 ;;  mode            1   63[BANK0 ] unsigned char 
  1548 ;;  pp              1   62[BANK0 ] unsigned char 
  1549 ;;  esign           1    0        unsigned char 
  1550 ;; Return value:  Size  Location     Type
  1551 ;;                  1    wreg      void 
  1552 ;; Registers used:
  1553 ;;		wreg, fsr1l, fsr1h, fsr2l, fsr2h, status,2, status,0, tblptrl, tblptrh, tblptru, prodl, prodh, cstack
  1554 ;; Tracked objects:
  1555 ;;		On entry : 0/0
  1556 ;;		On exit  : 0/0
  1557 ;;		Unchanged: 0/0
  1558 ;; Data sizes:     COMRAM   BANK0   BANK1   BANK2   BANK3   BANK4   BANK5   BANK6   BANK7
  1559 ;;      Params:         0       7       0       0       0       0       0       0       0
  1560 ;;      Locals:         0      44       0       0       0       0       0       0       0
  1561 ;;      Temps:          0       2       0       0       0       0       0       0       0
  1562 ;;      Totals:         0      53       0       0       0       0       0       0       0
  1563 ;;Total ram usage:       53 bytes
  1564 ;; Hardware stack levels used: 1
  1565 ;; Hardware stack levels required when called: 6
  1566 ;; This function calls:
  1567 ;;		___fladd
  1568 ;;		___fldiv
  1569 ;;		___fleq
  1570 ;;		___flge
  1571 ;;		___flmul
  1572 ;;		___flneg
  1573 ;;		___flsub
  1574 ;;		___fltol
  1575 ;;		___fpclassifyf
  1576 ;;		_floorf
  1577 ;;		_labs
  1578 ;;		_memcpy
  1579 ;;		_pad
  1580 ;;		_strcpy
  1581 ;; This function is called by:
  1582 ;;		_vfpfcnvrt
  1583 ;; This function uses a non-reentrant model
  1584 ;;
  1585                           
  1586                           	psect	text5
  1587   000826                     __ptext5:
  1588                           	callstack 0
  1589   000826                     _efgtoa:
  1590                           	callstack 21
  1591   000826                     
  1592                           ;C:\Program Files\Microchip\xc8\v2.40\pic\sources\c99\common\doprnt.c: 506: static void 
      +                          efgtoa(FILE *fp, long double f, char c);C:\Program Files\Microchip\xc8\v2.40\pic\sources
      +                          \c99\common\doprnt.c: 507: {;C:\Program Files\Microchip\xc8\v2.40\pic\sources\c99\common
      +                          \doprnt.c: 508:     char mode, nmode, pp, sign, esign;;C:\Program Files\Microchip\xc8\v2
      +                          .40\pic\sources\c99\common\doprnt.c: 509:     int d, e, i, m, n, ne, p, t, w;;C:\Program
      +                           Files\Microchip\xc8\v2.40\pic\sources\c99\common\doprnt.c: 510:     long double h, l;
  1593   000826  0E00               	movlw	0
  1594   000828  0100               	movlb	0	; () banked
  1595   00082A  6FB7               	movwf	efgtoa@sign& (0+255),b
  1596   00082C                     
  1597                           ; BSR set to: 0
  1598                           ;C:\Program Files\Microchip\xc8\v2.40\pic\sources\c99\common\doprnt.c: 515:     g.f = f;
  1599   00082C  C08F  F0B8         	movff	efgtoa@f,efgtoa@g
  1600   000830  C090  F0B9         	movff	efgtoa@f+1,efgtoa@g+1
  1601   000834  C091  F0BA         	movff	efgtoa@f+2,efgtoa@g+2
  1602   000838  C092  F0BB         	movff	efgtoa@f+3,efgtoa@g+3
  1603   00083C                     
  1604                           ; BSR set to: 0
  1605                           ;C:\Program Files\Microchip\xc8\v2.40\pic\sources\c99\common\doprnt.c: 516:     if (g.f 
      +                          < 0.0) {
  1606   00083C  BFBB               	btfsc	(efgtoa@g+3)& (0+255),7,b
  1607   00083E  EF25  F004         	goto	u5030
  1608   000842  EF23  F004         	goto	u5031
  1609   000846                     u5031:
  1610   000846  EF39  F004         	goto	l4553
  1611   00084A                     u5030:
  1612   00084A                     
  1613                           ; BSR set to: 0
  1614                           ;C:\Program Files\Microchip\xc8\v2.40\pic\sources\c99\common\doprnt.c: 517:         sign
      +                           = 1;
  1615   00084A  0E01               	movlw	1
  1616   00084C  6FB7               	movwf	efgtoa@sign& (0+255),b
  1617   00084E                     
  1618                           ; BSR set to: 0
  1619                           ;C:\Program Files\Microchip\xc8\v2.40\pic\sources\c99\common\doprnt.c: 518:         g.f 
      +                          = -g.f;
  1620   00084E  C0B8  F060         	movff	efgtoa@g,___flneg@f1
  1621   000852  C0B9  F061         	movff	efgtoa@g+1,___flneg@f1+1
  1622   000856  C0BA  F062         	movff	efgtoa@g+2,___flneg@f1+2
  1623   00085A  C0BB  F063         	movff	efgtoa@g+3,___flneg@f1+3
  1624   00085E  EC05  F01A         	call	___flneg	;wreg free
  1625   000862  C060  F0B8         	movff	?___flneg,efgtoa@g
  1626   000866  C061  F0B9         	movff	?___flneg+1,efgtoa@g+1
  1627   00086A  C062  F0BA         	movff	?___flneg+2,efgtoa@g+2
  1628   00086E  C063  F0BB         	movff	?___flneg+3,efgtoa@g+3
  1629   000872                     l4553:
  1630                           
  1631                           ;C:\Program Files\Microchip\xc8\v2.40\pic\sources\c99\common\doprnt.c: 522:     n = 0;
  1632   000872  0E00               	movlw	0
  1633   000874  0100               	movlb	0	; () banked
  1634   000876  6FBD               	movwf	(efgtoa@n+1)& (0+255),b
  1635   000878  0E00               	movlw	0
  1636   00087A  6FBC               	movwf	efgtoa@n& (0+255),b
  1637   00087C                     
  1638                           ; BSR set to: 0
  1639                           ;C:\Program Files\Microchip\xc8\v2.40\pic\sources\c99\common\doprnt.c: 523:     w = widt
      +                          h;
  1640   00087C  C0FA  F0A7         	movff	_width,efgtoa@w
  1641   000880  C0FB  F0A8         	movff	_width+1,efgtoa@w+1
  1642   000884                     
  1643                           ; BSR set to: 0
  1644                           ;C:\Program Files\Microchip\xc8\v2.40\pic\sources\c99\common\doprnt.c: 524:     if (sign
  1645   000884  51B7               	movf	efgtoa@sign& (0+255),w,b
  1646   000886  B4D8               	btfsc	status,2,c
  1647   000888  EF48  F004         	goto	u5041
  1648   00088C  EF4A  F004         	goto	u5040
  1649   000890                     u5041:
  1650   000890  EF5E  F004         	goto	l4567
  1651   000894                     u5040:
  1652   000894                     
  1653                           ; BSR set to: 0
  1654                           ;C:\Program Files\Microchip\xc8\v2.40\pic\sources\c99\common\doprnt.c: 528:    ) {;C:\Pr
      +                          ogram Files\Microchip\xc8\v2.40\pic\sources\c99\common\doprnt.c: 529:   sign = sign ? '-
      +                          ' : '+';
  1655   000894  51B7               	movf	efgtoa@sign& (0+255),w,b
  1656   000896  A4D8               	btfss	status,2,c
  1657   000898  EF50  F004         	goto	u5051
  1658   00089C  EF52  F004         	goto	u5050
  1659   0008A0                     u5051:
  1660   0008A0  EF58  F004         	goto	l4563
  1661   0008A4                     u5050:
  1662   0008A4                     
  1663                           ; BSR set to: 0
  1664   0008A4  0E00               	movlw	0
  1665   0008A6  6F9D               	movwf	(_efgtoa$1019+1)& (0+255),b
  1666   0008A8  0E2B               	movlw	43
  1667   0008AA  6F9C               	movwf	_efgtoa$1019& (0+255),b
  1668   0008AC  EF5C  F004         	goto	l4565
  1669   0008B0                     l4563:
  1670                           
  1671                           ; BSR set to: 0
  1672   0008B0  0E00               	movlw	0
  1673   0008B2  6F9D               	movwf	(_efgtoa$1019+1)& (0+255),b
  1674   0008B4  0E2D               	movlw	45
  1675   0008B6  6F9C               	movwf	_efgtoa$1019& (0+255),b
  1676   0008B8                     l4565:
  1677                           
  1678                           ; BSR set to: 0
  1679   0008B8  C09C  F0B7         	movff	_efgtoa$1019,efgtoa@sign
  1680   0008BC                     l4567:
  1681                           
  1682                           ; BSR set to: 0
  1683                           ;C:\Program Files\Microchip\xc8\v2.40\pic\sources\c99\common\doprnt.c: 538:     if (( __
      +                          fpclassifyf(g.f) == 1 )) {
  1684   0008BC  C0B8  F060         	movff	efgtoa@g,___fpclassifyf@x
  1685   0008C0  C0B9  F061         	movff	efgtoa@g+1,___fpclassifyf@x+1
  1686   0008C4  C0BA  F062         	movff	efgtoa@g+2,___fpclassifyf@x+2
  1687   0008C8  C0BB  F063         	movff	efgtoa@g+3,___fpclassifyf@x+3
  1688   0008CC  EC00  F016         	call	___fpclassifyf	;wreg free
  1689   0008D0  0100               	movlb	0	; () banked
  1690   0008D2  0560               	decf	?___fpclassifyf& (0+255),w,b
  1691   0008D4  1161               	iorwf	(?___fpclassifyf+1)& (0+255),w,b
  1692   0008D6  A4D8               	btfss	status,2,c
  1693   0008D8  EF70  F004         	goto	u5061
  1694   0008DC  EF72  F004         	goto	u5060
  1695   0008E0                     u5061:
  1696   0008E0  EFA4  F004         	goto	l4585
  1697   0008E4                     u5060:
  1698   0008E4                     
  1699                           ; BSR set to: 0
  1700                           ;C:\Program Files\Microchip\xc8\v2.40\pic\sources\c99\common\doprnt.c: 539:   if (sign) 
      +                          {
  1701   0008E4  51B7               	movf	efgtoa@sign& (0+255),w,b
  1702   0008E6  B4D8               	btfsc	status,2,c
  1703   0008E8  EF78  F004         	goto	u5071
  1704   0008EC  EF7A  F004         	goto	u5070
  1705   0008F0                     u5071:
  1706   0008F0  EF83  F004         	goto	l4577
  1707   0008F4                     u5070:
  1708   0008F4                     
  1709                           ; BSR set to: 0
  1710                           ;C:\Program Files\Microchip\xc8\v2.40\pic\sources\c99\common\doprnt.c: 540:    dbuf[0] =
      +                           sign;
  1711   0008F4  C0B7  F100         	movff	efgtoa@sign,_dbuf
  1712   0008F8                     
  1713                           ; BSR set to: 0
  1714                           ;C:\Program Files\Microchip\xc8\v2.40\pic\sources\c99\common\doprnt.c: 541:    w--;
  1715   0008F8  07A7               	decf	efgtoa@w& (0+255),f,b
  1716   0008FA  A0D8               	btfss	status,0,c
  1717   0008FC  07A8               	decf	(efgtoa@w+1)& (0+255),f,b
  1718   0008FE                     
  1719                           ; BSR set to: 0
  1720                           ;C:\Program Files\Microchip\xc8\v2.40\pic\sources\c99\common\doprnt.c: 542:    n = 1;
  1721   0008FE  0E00               	movlw	0
  1722   000900  6FBD               	movwf	(efgtoa@n+1)& (0+255),b
  1723   000902  0E01               	movlw	1
  1724   000904  6FBC               	movwf	efgtoa@n& (0+255),b
  1725   000906                     l4577:
  1726                           
  1727                           ; BSR set to: 0
  1728                           ;C:\Program Files\Microchip\xc8\v2.40\pic\sources\c99\common\doprnt.c: 550:   {;C:\Progr
      +                          am Files\Microchip\xc8\v2.40\pic\sources\c99\common\doprnt.c: 551:             strcpy(&d
      +                          buf[n], "inf");
  1729   000906  0E00               	movlw	low _dbuf
  1730   000908  25BC               	addwf	efgtoa@n& (0+255),w,b
  1731   00090A  6F60               	movwf	strcpy@dest& (0+255),b
  1732   00090C  0E01               	movlw	high _dbuf
  1733   00090E  21BD               	addwfc	(efgtoa@n+1)& (0+255),w,b
  1734   000910  6F61               	movwf	(strcpy@dest+1)& (0+255),b
  1735   000912  0E1C               	movlw	low STR_3
  1736   000914  6F62               	movwf	strcpy@src& (0+255),b
  1737   000916  0E08               	movlw	high STR_3
  1738   000918  6F63               	movwf	(strcpy@src+1)& (0+255),b
  1739   00091A  ECE4  F019         	call	_strcpy	;wreg free
  1740   00091E                     l4579:
  1741                           
  1742                           ;C:\Program Files\Microchip\xc8\v2.40\pic\sources\c99\common\doprnt.c: 552:         };C:
      +                          \Program Files\Microchip\xc8\v2.40\pic\sources\c99\common\doprnt.c: 553:         w -= ((
      +                          sizeof("inf")/sizeof("inf"[0]))-1);
  1743   00091E  0100               	movlb	0	; () banked
  1744   000920  0EFD               	movlw	253
  1745   000922  27A7               	addwf	efgtoa@w& (0+255),f,b
  1746   000924  0EFF               	movlw	255
  1747   000926  23A8               	addwfc	(efgtoa@w+1)& (0+255),f,b
  1748   000928                     
  1749                           ; BSR set to: 0
  1750                           ;C:\Program Files\Microchip\xc8\v2.40\pic\sources\c99\common\doprnt.c: 554:         retu
      +                          rn (void) pad(fp, &dbuf[0], w);
  1751   000928  C08D  F070         	movff	efgtoa@fp,pad@fp
  1752   00092C  C08E  F071         	movff	efgtoa@fp+1,pad@fp+1
  1753   000930  0E00               	movlw	low _dbuf
  1754   000932  6F72               	movwf	pad@buf& (0+255),b
  1755   000934  0E01               	movlw	high _dbuf
  1756   000936  6F73               	movwf	(pad@buf+1)& (0+255),b
  1757   000938  C0A7  F074         	movff	efgtoa@w,pad@p
  1758   00093C  C0A8  F075         	movff	efgtoa@w+1,pad@p+1
  1759   000940  EC1A  F018         	call	_pad	;wreg free
  1760   000944  EF13  F009         	goto	l844
  1761   000948                     l4585:
  1762                           
  1763                           ; BSR set to: 0
  1764                           ;C:\Program Files\Microchip\xc8\v2.40\pic\sources\c99\common\doprnt.c: 556:     if (( __
      +                          fpclassifyf(g.f) == 0 )) {
  1765   000948  C0B8  F060         	movff	efgtoa@g,___fpclassifyf@x
  1766   00094C  C0B9  F061         	movff	efgtoa@g+1,___fpclassifyf@x+1
  1767   000950  C0BA  F062         	movff	efgtoa@g+2,___fpclassifyf@x+2
  1768   000954  C0BB  F063         	movff	efgtoa@g+3,___fpclassifyf@x+3
  1769   000958  EC00  F016         	call	___fpclassifyf	;wreg free
  1770   00095C  0100               	movlb	0	; () banked
  1771   00095E  5160               	movf	?___fpclassifyf& (0+255),w,b
  1772   000960  1161               	iorwf	(?___fpclassifyf+1)& (0+255),w,b
  1773   000962  A4D8               	btfss	status,2,c
  1774   000964  EFB6  F004         	goto	u5081
  1775   000968  EFB8  F004         	goto	u5080
  1776   00096C                     u5081:
  1777   00096C  EFD7  F004         	goto	l4603
  1778   000970                     u5080:
  1779   000970                     
  1780                           ; BSR set to: 0
  1781                           ;C:\Program Files\Microchip\xc8\v2.40\pic\sources\c99\common\doprnt.c: 557:   if (sign) 
      +                          {
  1782   000970  51B7               	movf	efgtoa@sign& (0+255),w,b
  1783   000972  B4D8               	btfsc	status,2,c
  1784   000974  EFBE  F004         	goto	u5091
  1785   000978  EFC0  F004         	goto	u5090
  1786   00097C                     u5091:
  1787   00097C  EFC9  F004         	goto	l4595
  1788   000980                     u5090:
  1789   000980                     
  1790                           ; BSR set to: 0
  1791                           ;C:\Program Files\Microchip\xc8\v2.40\pic\sources\c99\common\doprnt.c: 558:    dbuf[0] =
      +                           sign;
  1792   000980  C0B7  F100         	movff	efgtoa@sign,_dbuf
  1793   000984                     
  1794                           ; BSR set to: 0
  1795                           ;C:\Program Files\Microchip\xc8\v2.40\pic\sources\c99\common\doprnt.c: 559:    w--;
  1796   000984  07A7               	decf	efgtoa@w& (0+255),f,b
  1797   000986  A0D8               	btfss	status,0,c
  1798   000988  07A8               	decf	(efgtoa@w+1)& (0+255),f,b
  1799   00098A                     
  1800                           ; BSR set to: 0
  1801                           ;C:\Program Files\Microchip\xc8\v2.40\pic\sources\c99\common\doprnt.c: 560:    n = 1;
  1802   00098A  0E00               	movlw	0
  1803   00098C  6FBD               	movwf	(efgtoa@n+1)& (0+255),b
  1804   00098E  0E01               	movlw	1
  1805   000990  6FBC               	movwf	efgtoa@n& (0+255),b
  1806   000992                     l4595:
  1807                           
  1808                           ; BSR set to: 0
  1809                           ;C:\Program Files\Microchip\xc8\v2.40\pic\sources\c99\common\doprnt.c: 568:   {;C:\Progr
      +                          am Files\Microchip\xc8\v2.40\pic\sources\c99\common\doprnt.c: 569:             strcpy(&d
      +                          buf[n], "nan");
  1810   000992  0E00               	movlw	low _dbuf
  1811   000994  25BC               	addwf	efgtoa@n& (0+255),w,b
  1812   000996  6F60               	movwf	strcpy@dest& (0+255),b
  1813   000998  0E01               	movlw	high _dbuf
  1814   00099A  21BD               	addwfc	(efgtoa@n+1)& (0+255),w,b
  1815   00099C  6F61               	movwf	(strcpy@dest+1)& (0+255),b
  1816   00099E  0E20               	movlw	low STR_6
  1817   0009A0  6F62               	movwf	strcpy@src& (0+255),b
  1818   0009A2  0E08               	movlw	high STR_6
  1819   0009A4  6F63               	movwf	(strcpy@src+1)& (0+255),b
  1820   0009A6  ECE4  F019         	call	_strcpy	;wreg free
  1821   0009AA  EF8F  F004         	goto	l4579
  1822   0009AE                     l4603:
  1823                           
  1824                           ; BSR set to: 0
  1825                           ;C:\Program Files\Microchip\xc8\v2.40\pic\sources\c99\common\doprnt.c: 576:     u.f = 1.
      +                          0;
  1826   0009AE  0E00               	movlw	0
  1827   0009B0  6FBE               	movwf	efgtoa@u& (0+255),b
  1828   0009B2  0E00               	movlw	0
  1829   0009B4  6FBF               	movwf	(efgtoa@u+1)& (0+255),b
  1830   0009B6  0E80               	movlw	128
  1831   0009B8  6FC0               	movwf	(efgtoa@u+2)& (0+255),b
  1832   0009BA  0E3F               	movlw	63
  1833   0009BC  6FC1               	movwf	(efgtoa@u+3)& (0+255),b
  1834                           
  1835                           ;C:\Program Files\Microchip\xc8\v2.40\pic\sources\c99\common\doprnt.c: 577:     e = 0;
  1836   0009BE  0E00               	movlw	0
  1837   0009C0  6FA6               	movwf	(efgtoa@e+1)& (0+255),b
  1838   0009C2  0E00               	movlw	0
  1839   0009C4  6FA5               	movwf	efgtoa@e& (0+255),b
  1840   0009C6                     
  1841                           ; BSR set to: 0
  1842                           ;C:\Program Files\Microchip\xc8\v2.40\pic\sources\c99\common\doprnt.c: 578:  if (!(g.f =
      +                          = 0.0)) {
  1843   0009C6  C0B8  F060         	movff	efgtoa@g,___fleq@ff1
  1844   0009CA  C0B9  F061         	movff	efgtoa@g+1,___fleq@ff1+1
  1845   0009CE  C0BA  F062         	movff	efgtoa@g+2,___fleq@ff1+2
  1846   0009D2  C0BB  F063         	movff	efgtoa@g+3,___fleq@ff1+3
  1847   0009D6  0E00               	movlw	0
  1848   0009D8  6F64               	movwf	___fleq@ff2& (0+255),b
  1849   0009DA  0E00               	movlw	0
  1850   0009DC  6F65               	movwf	(___fleq@ff2+1)& (0+255),b
  1851   0009DE  0E00               	movlw	0
  1852   0009E0  6F66               	movwf	(___fleq@ff2+2)& (0+255),b
  1853   0009E2  0E00               	movlw	0
  1854   0009E4  6F67               	movwf	(___fleq@ff2+3)& (0+255),b
  1855   0009E6  EC3E  F017         	call	___fleq	;wreg free
  1856   0009EA  0100               	movlb	0	; () banked
  1857   0009EC  B0D8               	btfsc	status,0,c
  1858   0009EE  EFFB  F004         	goto	u5101
  1859   0009F2  EFFD  F004         	goto	u5100
  1860   0009F6                     u5101:
  1861   0009F6  EFDF  F005         	goto	l847
  1862   0009FA                     u5100:
  1863   0009FA  EF09  F005         	goto	l4611
  1864   0009FE                     l849:
  1865                           
  1866                           ; BSR set to: 0
  1867                           ;C:\Program Files\Microchip\xc8\v2.40\pic\sources\c99\common\doprnt.c: 580:    u = ou;
  1868   0009FE  C0A9  F0BE         	movff	efgtoa@ou,efgtoa@u
  1869   000A02  C0AA  F0BF         	movff	efgtoa@ou+1,efgtoa@u+1
  1870   000A06  C0AB  F0C0         	movff	efgtoa@ou+2,efgtoa@u+2
  1871   000A0A  C0AC  F0C1         	movff	efgtoa@ou+3,efgtoa@u+3
  1872   000A0E                     
  1873                           ; BSR set to: 0
  1874                           ;C:\Program Files\Microchip\xc8\v2.40\pic\sources\c99\common\doprnt.c: 581:    ++e;
  1875   000A0E  4BA5               	infsnz	efgtoa@e& (0+255),f,b
  1876   000A10  2BA6               	incf	(efgtoa@e+1)& (0+255),f,b
  1877   000A12                     l4611:
  1878                           
  1879                           ; BSR set to: 0
  1880                           ;C:\Program Files\Microchip\xc8\v2.40\pic\sources\c99\common\doprnt.c: 579:   while ((la
      +                          bs((g).u-((ou.f = u.f*10.0,ou)).u) <= 1) || g.f > ou.f) {
  1881   000A12  C0BE  F060         	movff	efgtoa@u,___flmul@b
  1882   000A16  C0BF  F061         	movff	efgtoa@u+1,___flmul@b+1
  1883   000A1A  C0C0  F062         	movff	efgtoa@u+2,___flmul@b+2
  1884   000A1E  C0C1  F063         	movff	efgtoa@u+3,___flmul@b+3
  1885   000A22  0E00               	movlw	0
  1886   000A24  6F64               	movwf	___flmul@a& (0+255),b
  1887   000A26  0E00               	movlw	0
  1888   000A28  6F65               	movwf	(___flmul@a+1)& (0+255),b
  1889   000A2A  0E20               	movlw	32
  1890   000A2C  6F66               	movwf	(___flmul@a+2)& (0+255),b
  1891   000A2E  0E41               	movlw	65
  1892   000A30  6F67               	movwf	(___flmul@a+3)& (0+255),b
  1893   000A32  EC75  F00B         	call	___flmul	;wreg free
  1894   000A36  C060  F0A9         	movff	?___flmul,efgtoa@ou
  1895   000A3A  C061  F0AA         	movff	?___flmul+1,efgtoa@ou+1
  1896   000A3E  C062  F0AB         	movff	?___flmul+2,efgtoa@ou+2
  1897   000A42  C063  F0AC         	movff	?___flmul+3,efgtoa@ou+3
  1898   000A46  0100               	movlb	0	; () banked
  1899   000A48  51A9               	movf	efgtoa@ou& (0+255),w,b
  1900   000A4A  5DB8               	subwf	efgtoa@g& (0+255),w,b
  1901   000A4C  6F60               	movwf	labs@a& (0+255),b
  1902   000A4E  51AA               	movf	(efgtoa@ou+1)& (0+255),w,b
  1903   000A50  59B9               	subwfb	(efgtoa@g+1)& (0+255),w,b
  1904   000A52  6F61               	movwf	(labs@a+1)& (0+255),b
  1905   000A54  51AB               	movf	(efgtoa@ou+2)& (0+255),w,b
  1906   000A56  59BA               	subwfb	(efgtoa@g+2)& (0+255),w,b
  1907   000A58  6F62               	movwf	(labs@a+2)& (0+255),b
  1908   000A5A  51AC               	movf	(efgtoa@ou+3)& (0+255),w,b
  1909   000A5C  59BB               	subwfb	(efgtoa@g+3)& (0+255),w,b
  1910   000A5E  6F63               	movwf	(labs@a+3)& (0+255),b
  1911   000A60  EC91  F018         	call	_labs	;wreg free
  1912   000A64  0100               	movlb	0	; () banked
  1913   000A66  BF63               	btfsc	(?_labs+3)& (0+255),7,b
  1914   000A68  EF41  F005         	goto	u5111
  1915   000A6C  5163               	movf	(?_labs+3)& (0+255),w,b
  1916   000A6E  1162               	iorwf	(?_labs+2)& (0+255),w,b
  1917   000A70  1161               	iorwf	(?_labs+1)& (0+255),w,b
  1918   000A72  E109               	bnz	u5110
  1919   000A74  0E02               	movlw	2
  1920   000A76  5D60               	subwf	?_labs& (0+255),w,b
  1921   000A78  A0D8               	btfss	status,0,c
  1922   000A7A  EF41  F005         	goto	u5111
  1923   000A7E  EF43  F005         	goto	u5110
  1924   000A82                     u5111:
  1925   000A82  EFFF  F004         	goto	l849
  1926   000A86                     u5110:
  1927   000A86                     
  1928                           ; BSR set to: 0
  1929   000A86  C0A9  F079         	movff	efgtoa@ou,___flge@ff1
  1930   000A8A  C0AA  F07A         	movff	efgtoa@ou+1,___flge@ff1+1
  1931   000A8E  C0AB  F07B         	movff	efgtoa@ou+2,___flge@ff1+2
  1932   000A92  C0AC  F07C         	movff	efgtoa@ou+3,___flge@ff1+3
  1933   000A96  C0B8  F07D         	movff	efgtoa@g,___flge@ff2
  1934   000A9A  C0B9  F07E         	movff	efgtoa@g+1,___flge@ff2+1
  1935   000A9E  C0BA  F07F         	movff	efgtoa@g+2,___flge@ff2+2
  1936   000AA2  C0BB  F080         	movff	efgtoa@g+3,___flge@ff2+3
  1937   000AA6  EC7D  F015         	call	___flge	;wreg free
  1938   000AAA  0100               	movlb	0	; () banked
  1939   000AAC  A0D8               	btfss	status,0,c
  1940   000AAE  EF5B  F005         	goto	u5121
  1941   000AB2  EF5D  F005         	goto	u5120
  1942   000AB6                     u5121:
  1943   000AB6  EFFF  F004         	goto	l849
  1944   000ABA                     u5120:
  1945   000ABA                     
  1946                           ; BSR set to: 0
  1947                           ;C:\Program Files\Microchip\xc8\v2.40\pic\sources\c99\common\doprnt.c: 583:   if ((labs(
      +                          (g).u-(u).u) <= 1)) {
  1948   000ABA  51BE               	movf	efgtoa@u& (0+255),w,b
  1949   000ABC  5DB8               	subwf	efgtoa@g& (0+255),w,b
  1950   000ABE  6F60               	movwf	labs@a& (0+255),b
  1951   000AC0  51BF               	movf	(efgtoa@u+1)& (0+255),w,b
  1952   000AC2  59B9               	subwfb	(efgtoa@g+1)& (0+255),w,b
  1953   000AC4  6F61               	movwf	(labs@a+1)& (0+255),b
  1954   000AC6  51C0               	movf	(efgtoa@u+2)& (0+255),w,b
  1955   000AC8  59BA               	subwfb	(efgtoa@g+2)& (0+255),w,b
  1956   000ACA  6F62               	movwf	(labs@a+2)& (0+255),b
  1957   000ACC  51C1               	movf	(efgtoa@u+3)& (0+255),w,b
  1958   000ACE  59BB               	subwfb	(efgtoa@g+3)& (0+255),w,b
  1959   000AD0  6F63               	movwf	(labs@a+3)& (0+255),b
  1960   000AD2  EC91  F018         	call	_labs	;wreg free
  1961   000AD6  0100               	movlb	0	; () banked
  1962   000AD8  BF63               	btfsc	(?_labs+3)& (0+255),7,b
  1963   000ADA  EF7C  F005         	goto	u5130
  1964   000ADE  5163               	movf	(?_labs+3)& (0+255),w,b
  1965   000AE0  1162               	iorwf	(?_labs+2)& (0+255),w,b
  1966   000AE2  1161               	iorwf	(?_labs+1)& (0+255),w,b
  1967   000AE4  E107               	bnz	u5131
  1968   000AE6  0E02               	movlw	2
  1969   000AE8  5D60               	subwf	?_labs& (0+255),w,b
  1970   000AEA  B0D8               	btfsc	status,0,c
  1971   000AEC  EF7A  F005         	goto	u5131
  1972   000AF0  EF7C  F005         	goto	u5130
  1973   000AF4                     u5131:
  1974   000AF4  EFC5  F005         	goto	l4629
  1975   000AF8                     u5130:
  1976   000AF8                     l4619:
  1977                           
  1978                           ; BSR set to: 0
  1979                           ;C:\Program Files\Microchip\xc8\v2.40\pic\sources\c99\common\doprnt.c: 584:    g = u;
  1980   000AF8  C0BE  F0B8         	movff	efgtoa@u,efgtoa@g
  1981   000AFC  C0BF  F0B9         	movff	efgtoa@u+1,efgtoa@g+1
  1982   000B00  C0C0  F0BA         	movff	efgtoa@u+2,efgtoa@g+2
  1983   000B04  C0C1  F0BB         	movff	efgtoa@u+3,efgtoa@g+3
  1984                           
  1985                           ;C:\Program Files\Microchip\xc8\v2.40\pic\sources\c99\common\doprnt.c: 585:   }
  1986   000B08  EFDF  F005         	goto	l847
  1987   000B0C                     l4621:
  1988                           
  1989                           ; BSR set to: 0
  1990                           ;C:\Program Files\Microchip\xc8\v2.40\pic\sources\c99\common\doprnt.c: 588:     u.f = u.
      +                          f/10.0;
  1991   000B0C  C0BE  F060         	movff	efgtoa@u,___fldiv@b
  1992   000B10  C0BF  F061         	movff	efgtoa@u+1,___fldiv@b+1
  1993   000B14  C0C0  F062         	movff	efgtoa@u+2,___fldiv@b+2
  1994   000B18  C0C1  F063         	movff	efgtoa@u+3,___fldiv@b+3
  1995   000B1C  0E00               	movlw	0
  1996   000B1E  6F64               	movwf	___fldiv@a& (0+255),b
  1997   000B20  0E00               	movlw	0
  1998   000B22  6F65               	movwf	(___fldiv@a+1)& (0+255),b
  1999   000B24  0E20               	movlw	32
  2000   000B26  6F66               	movwf	(___fldiv@a+2)& (0+255),b
  2001   000B28  0E41               	movlw	65
  2002   000B2A  6F67               	movwf	(___fldiv@a+3)& (0+255),b
  2003   000B2C  ECA0  F00F         	call	___fldiv	;wreg free
  2004   000B30  C060  F0BE         	movff	?___fldiv,efgtoa@u
  2005   000B34  C061  F0BF         	movff	?___fldiv+1,efgtoa@u+1
  2006   000B38  C062  F0C0         	movff	?___fldiv+2,efgtoa@u+2
  2007   000B3C  C063  F0C1         	movff	?___fldiv+3,efgtoa@u+3
  2008   000B40                     
  2009                           ;C:\Program Files\Microchip\xc8\v2.40\pic\sources\c99\common\doprnt.c: 589:     --e;
  2010   000B40  0100               	movlb	0	; () banked
  2011   000B42  07A5               	decf	efgtoa@e& (0+255),f,b
  2012   000B44  A0D8               	btfss	status,0,c
  2013   000B46  07A6               	decf	(efgtoa@e+1)& (0+255),f,b
  2014   000B48                     
  2015                           ; BSR set to: 0
  2016                           ;C:\Program Files\Microchip\xc8\v2.40\pic\sources\c99\common\doprnt.c: 590:     if ((lab
      +                          s((g).u-(u).u) <= 1)) {
  2017   000B48  51BE               	movf	efgtoa@u& (0+255),w,b
  2018   000B4A  5DB8               	subwf	efgtoa@g& (0+255),w,b
  2019   000B4C  6F60               	movwf	labs@a& (0+255),b
  2020   000B4E  51BF               	movf	(efgtoa@u+1)& (0+255),w,b
  2021   000B50  59B9               	subwfb	(efgtoa@g+1)& (0+255),w,b
  2022   000B52  6F61               	movwf	(labs@a+1)& (0+255),b
  2023   000B54  51C0               	movf	(efgtoa@u+2)& (0+255),w,b
  2024   000B56  59BA               	subwfb	(efgtoa@g+2)& (0+255),w,b
  2025   000B58  6F62               	movwf	(labs@a+2)& (0+255),b
  2026   000B5A  51C1               	movf	(efgtoa@u+3)& (0+255),w,b
  2027   000B5C  59BB               	subwfb	(efgtoa@g+3)& (0+255),w,b
  2028   000B5E  6F63               	movwf	(labs@a+3)& (0+255),b
  2029   000B60  EC91  F018         	call	_labs	;wreg free
  2030   000B64  0100               	movlb	0	; () banked
  2031   000B66  BF63               	btfsc	(?_labs+3)& (0+255),7,b
  2032   000B68  EFC3  F005         	goto	u5140
  2033   000B6C  5163               	movf	(?_labs+3)& (0+255),w,b
  2034   000B6E  1162               	iorwf	(?_labs+2)& (0+255),w,b
  2035   000B70  1161               	iorwf	(?_labs+1)& (0+255),w,b
  2036   000B72  E107               	bnz	u5141
  2037   000B74  0E02               	movlw	2
  2038   000B76  5D60               	subwf	?_labs& (0+255),w,b
  2039   000B78  B0D8               	btfsc	status,0,c
  2040   000B7A  EFC1  F005         	goto	u5141
  2041   000B7E  EFC3  F005         	goto	u5140
  2042   000B82                     u5141:
  2043   000B82  EFC5  F005         	goto	l4629
  2044   000B86                     u5140:
  2045   000B86  EF7C  F005         	goto	l4619
  2046   000B8A                     l4629:
  2047                           
  2048                           ; BSR set to: 0
  2049                           ;C:\Program Files\Microchip\xc8\v2.40\pic\sources\c99\common\doprnt.c: 587:    while (g.
      +                          f < u.f) {
  2050   000B8A  C0B8  F079         	movff	efgtoa@g,___flge@ff1
  2051   000B8E  C0B9  F07A         	movff	efgtoa@g+1,___flge@ff1+1
  2052   000B92  C0BA  F07B         	movff	efgtoa@g+2,___flge@ff1+2
  2053   000B96  C0BB  F07C         	movff	efgtoa@g+3,___flge@ff1+3
  2054   000B9A  C0BE  F07D         	movff	efgtoa@u,___flge@ff2
  2055   000B9E  C0BF  F07E         	movff	efgtoa@u+1,___flge@ff2+1
  2056   000BA2  C0C0  F07F         	movff	efgtoa@u+2,___flge@ff2+2
  2057   000BA6  C0C1  F080         	movff	efgtoa@u+3,___flge@ff2+3
  2058   000BAA  EC7D  F015         	call	___flge	;wreg free
  2059   000BAE  0100               	movlb	0	; () banked
  2060   000BB0  A0D8               	btfss	status,0,c
  2061   000BB2  EFDD  F005         	goto	u5151
  2062   000BB6  EFDF  F005         	goto	u5150
  2063   000BBA                     u5151:
  2064   000BBA  EF86  F005         	goto	l4621
  2065   000BBE                     u5150:
  2066   000BBE                     l847:
  2067                           
  2068                           ; BSR set to: 0
  2069                           ;C:\Program Files\Microchip\xc8\v2.40\pic\sources\c99\common\doprnt.c: 602:  mode = c;
  2070   000BBE  C093  F09F         	movff	efgtoa@c,efgtoa@mode
  2071                           
  2072                           ;C:\Program Files\Microchip\xc8\v2.40\pic\sources\c99\common\doprnt.c: 604:     nmode = 
      +                          mode;
  2073   000BC2  C09F  F0A0         	movff	efgtoa@mode,efgtoa@nmode
  2074   000BC6                     
  2075                           ; BSR set to: 0
  2076                           ;C:\Program Files\Microchip\xc8\v2.40\pic\sources\c99\common\doprnt.c: 614:  {;C:\Progra
      +                          m Files\Microchip\xc8\v2.40\pic\sources\c99\common\doprnt.c: 615:         p = (prec < 0)
      +                           ? 6 : prec;
  2077   000BC6  BFFD               	btfsc	(_prec+1)& (0+255),7,b
  2078   000BC8  EFE8  F005         	goto	u5161
  2079   000BCC  EFEA  F005         	goto	u5160
  2080   000BD0                     u5161:
  2081   000BD0  EFF0  F005         	goto	l4635
  2082   000BD4                     u5160:
  2083   000BD4                     
  2084                           ; BSR set to: 0
  2085   000BD4  C0FC  F098         	movff	_prec,efgtoa@p
  2086   000BD8  C0FD  F099         	movff	_prec+1,efgtoa@p+1
  2087   000BDC  EFF4  F005         	goto	l4637
  2088   000BE0                     l4635:
  2089                           
  2090                           ; BSR set to: 0
  2091   000BE0  0E00               	movlw	0
  2092   000BE2  6F99               	movwf	(efgtoa@p+1)& (0+255),b
  2093   000BE4  0E06               	movlw	6
  2094   000BE6  6F98               	movwf	efgtoa@p& (0+255),b
  2095   000BE8                     l4637:
  2096                           
  2097                           ; BSR set to: 0
  2098                           ;C:\Program Files\Microchip\xc8\v2.40\pic\sources\c99\common\doprnt.c: 616:     };C:\Pro
      +                          gram Files\Microchip\xc8\v2.40\pic\sources\c99\common\doprnt.c: 630:     m = p;
  2099   000BE8  C098  F0A3         	movff	efgtoa@p,efgtoa@m
  2100   000BEC  C099  F0A4         	movff	efgtoa@p+1,efgtoa@m+1
  2101   000BF0                     
  2102                           ; BSR set to: 0
  2103                           ;C:\Program Files\Microchip\xc8\v2.40\pic\sources\c99\common\doprnt.c: 634:  {;C:\Progra
      +                          m Files\Microchip\xc8\v2.40\pic\sources\c99\common\doprnt.c: 635:         ++m;
  2104   000BF0  4BA3               	infsnz	efgtoa@m& (0+255),f,b
  2105   000BF2  2BA4               	incf	(efgtoa@m+1)& (0+255),f,b
  2106   000BF4                     
  2107                           ; BSR set to: 0
  2108                           ;C:\Program Files\Microchip\xc8\v2.40\pic\sources\c99\common\doprnt.c: 636:     };C:\Pro
      +                          gram Files\Microchip\xc8\v2.40\pic\sources\c99\common\doprnt.c: 640:     if (nmode == 'f
      +                          ') {
  2109   000BF4  0E66               	movlw	102
  2110   000BF6  19A0               	xorwf	efgtoa@nmode& (0+255),w,b
  2111   000BF8  A4D8               	btfss	status,2,c
  2112   000BFA  EF01  F006         	goto	u5171
  2113   000BFE  EF03  F006         	goto	u5170
  2114   000C02                     u5171:
  2115   000C02  EF23  F006         	goto	l4651
  2116   000C06                     u5170:
  2117   000C06                     
  2118                           ; BSR set to: 0
  2119                           ;C:\Program Files\Microchip\xc8\v2.40\pic\sources\c99\common\doprnt.c: 641:         if (
      +                          e < 0) {
  2120   000C06  BFA6               	btfsc	(efgtoa@e+1)& (0+255),7,b
  2121   000C08  EF0A  F006         	goto	u5180
  2122   000C0C  EF08  F006         	goto	u5181
  2123   000C10                     u5181:
  2124   000C10  EF16  F006         	goto	l4647
  2125   000C14                     u5180:
  2126   000C14                     
  2127                           ; BSR set to: 0
  2128                           ;C:\Program Files\Microchip\xc8\v2.40\pic\sources\c99\common\doprnt.c: 642:             
      +                          u.f = 1.0;
  2129   000C14  0E00               	movlw	0
  2130   000C16  6FBE               	movwf	efgtoa@u& (0+255),b
  2131   000C18  0E00               	movlw	0
  2132   000C1A  6FBF               	movwf	(efgtoa@u+1)& (0+255),b
  2133   000C1C  0E80               	movlw	128
  2134   000C1E  6FC0               	movwf	(efgtoa@u+2)& (0+255),b
  2135   000C20  0E3F               	movlw	63
  2136   000C22  6FC1               	movwf	(efgtoa@u+3)& (0+255),b
  2137                           
  2138                           ;C:\Program Files\Microchip\xc8\v2.40\pic\sources\c99\common\doprnt.c: 643:             
      +                          e = 0;
  2139   000C24  0E00               	movlw	0
  2140   000C26  6FA6               	movwf	(efgtoa@e+1)& (0+255),b
  2141   000C28  0E00               	movlw	0
  2142   000C2A  6FA5               	movwf	efgtoa@e& (0+255),b
  2143   000C2C                     l4647:
  2144                           
  2145                           ; BSR set to: 0
  2146                           ;C:\Program Files\Microchip\xc8\v2.40\pic\sources\c99\common\doprnt.c: 645:         if (
      +                          !(mode == 'g')) {
  2147   000C2C  0E67               	movlw	103
  2148   000C2E  199F               	xorwf	efgtoa@mode& (0+255),w,b
  2149   000C30  B4D8               	btfsc	status,2,c
  2150   000C32  EF1D  F006         	goto	u5191
  2151   000C36  EF1F  F006         	goto	u5190
  2152   000C3A                     u5191:
  2153   000C3A  EF23  F006         	goto	l4651
  2154   000C3E                     u5190:
  2155   000C3E                     
  2156                           ; BSR set to: 0
  2157                           ;C:\Program Files\Microchip\xc8\v2.40\pic\sources\c99\common\doprnt.c: 646:             
      +                          m += e;
  2158   000C3E  51A5               	movf	efgtoa@e& (0+255),w,b
  2159   000C40  27A3               	addwf	efgtoa@m& (0+255),f,b
  2160   000C42  51A6               	movf	(efgtoa@e+1)& (0+255),w,b
  2161   000C44  23A4               	addwfc	(efgtoa@m+1)& (0+255),f,b
  2162   000C46                     l4651:
  2163                           
  2164                           ; BSR set to: 0
  2165                           ;C:\Program Files\Microchip\xc8\v2.40\pic\sources\c99\common\doprnt.c: 652:     i = 0;
  2166   000C46  0E00               	movlw	0
  2167   000C48  6FAE               	movwf	(efgtoa@i+1)& (0+255),b
  2168   000C4A  0E00               	movlw	0
  2169   000C4C  6FAD               	movwf	efgtoa@i& (0+255),b
  2170   000C4E                     
  2171                           ; BSR set to: 0
  2172                           ;C:\Program Files\Microchip\xc8\v2.40\pic\sources\c99\common\doprnt.c: 653:     h = g.f;
  2173   000C4E  C0B8  F0AF         	movff	efgtoa@g,efgtoa@h
  2174   000C52  C0B9  F0B0         	movff	efgtoa@g+1,efgtoa@h+1
  2175   000C56  C0BA  F0B1         	movff	efgtoa@g+2,efgtoa@h+2
  2176   000C5A  C0BB  F0B2         	movff	efgtoa@g+3,efgtoa@h+3
  2177   000C5E                     
  2178                           ; BSR set to: 0
  2179                           ;C:\Program Files\Microchip\xc8\v2.40\pic\sources\c99\common\doprnt.c: 654:     ou = u;
  2180   000C5E  C0BE  F0A9         	movff	efgtoa@u,efgtoa@ou
  2181   000C62  C0BF  F0AA         	movff	efgtoa@u+1,efgtoa@ou+1
  2182   000C66  C0C0  F0AB         	movff	efgtoa@u+2,efgtoa@ou+2
  2183   000C6A  C0C1  F0AC         	movff	efgtoa@u+3,efgtoa@ou+3
  2184                           
  2185                           ;C:\Program Files\Microchip\xc8\v2.40\pic\sources\c99\common\doprnt.c: 655:     while (i
      +                           < m) {
  2186   000C6E  EFB5  F006         	goto	l4665
  2187   000C72                     l4657:
  2188                           
  2189                           ; BSR set to: 0
  2190                           ;C:\Program Files\Microchip\xc8\v2.40\pic\sources\c99\common\doprnt.c: 656:         l = 
      +                          floorf(h/u.f);
  2191   000C72  C0AF  F060         	movff	efgtoa@h,___fldiv@b
  2192   000C76  C0B0  F061         	movff	efgtoa@h+1,___fldiv@b+1
  2193   000C7A  C0B1  F062         	movff	efgtoa@h+2,___fldiv@b+2
  2194   000C7E  C0B2  F063         	movff	efgtoa@h+3,___fldiv@b+3
  2195   000C82  C0BE  F064         	movff	efgtoa@u,___fldiv@a
  2196   000C86  C0BF  F065         	movff	efgtoa@u+1,___fldiv@a+1
  2197   000C8A  C0C0  F066         	movff	efgtoa@u+2,___fldiv@a+2
  2198   000C8E  C0C1  F067         	movff	efgtoa@u+3,___fldiv@a+3
  2199   000C92  ECA0  F00F         	call	___fldiv	;wreg free
  2200   000C96  C060  F079         	movff	?___fldiv,floorf@x
  2201   000C9A  C061  F07A         	movff	?___fldiv+1,floorf@x+1
  2202   000C9E  C062  F07B         	movff	?___fldiv+2,floorf@x+2
  2203   000CA2  C063  F07C         	movff	?___fldiv+3,floorf@x+3
  2204   000CA6  EC7B  F012         	call	_floorf	;wreg free
  2205   000CAA  C079  F0B3         	movff	?_floorf,efgtoa@l
  2206   000CAE  C07A  F0B4         	movff	?_floorf+1,efgtoa@l+1
  2207   000CB2  C07B  F0B5         	movff	?_floorf+2,efgtoa@l+2
  2208   000CB6  C07C  F0B6         	movff	?_floorf+3,efgtoa@l+3
  2209                           
  2210                           ;C:\Program Files\Microchip\xc8\v2.40\pic\sources\c99\common\doprnt.c: 657:         d = 
      +                          (int)l;
  2211   000CBA  C0B3  F060         	movff	efgtoa@l,___fltol@f1
  2212   000CBE  C0B4  F061         	movff	efgtoa@l+1,___fltol@f1+1
  2213   000CC2  C0B5  F062         	movff	efgtoa@l+2,___fltol@f1+2
  2214   000CC6  C0B6  F063         	movff	efgtoa@l+3,___fltol@f1+3
  2215   000CCA  ECF9  F014         	call	___fltol	;wreg free
  2216   000CCE  C060  F0A1         	movff	?___fltol,efgtoa@d
  2217   000CD2  C061  F0A2         	movff	?___fltol+1,efgtoa@d+1
  2218   000CD6                     
  2219                           ;C:\Program Files\Microchip\xc8\v2.40\pic\sources\c99\common\doprnt.c: 658:         h -=
      +                           l*u.f;
  2220   000CD6  C0AF  F079         	movff	efgtoa@h,___flsub@b
  2221   000CDA  C0B0  F07A         	movff	efgtoa@h+1,___flsub@b+1
  2222   000CDE  C0B1  F07B         	movff	efgtoa@h+2,___flsub@b+2
  2223   000CE2  C0B2  F07C         	movff	efgtoa@h+3,___flsub@b+3
  2224   000CE6  C0B3  F064         	movff	efgtoa@l,___flmul@a
  2225   000CEA  C0B4  F065         	movff	efgtoa@l+1,___flmul@a+1
  2226   000CEE  C0B5  F066         	movff	efgtoa@l+2,___flmul@a+2
  2227   000CF2  C0B6  F067         	movff	efgtoa@l+3,___flmul@a+3
  2228   000CF6  C0BE  F060         	movff	efgtoa@u,___flmul@b
  2229   000CFA  C0BF  F061         	movff	efgtoa@u+1,___flmul@b+1
  2230   000CFE  C0C0  F062         	movff	efgtoa@u+2,___flmul@b+2
  2231   000D02  C0C1  F063         	movff	efgtoa@u+3,___flmul@b+3
  2232   000D06  EC75  F00B         	call	___flmul	;wreg free
  2233   000D0A  C060  F07D         	movff	?___flmul,___flsub@a
  2234   000D0E  C061  F07E         	movff	?___flmul+1,___flsub@a+1
  2235   000D12  C062  F07F         	movff	?___flmul+2,___flsub@a+2
  2236   000D16  C063  F080         	movff	?___flmul+3,___flsub@a+3
  2237   000D1A  ECC0  F019         	call	___flsub	;wreg free
  2238   000D1E  C079  F0AF         	movff	?___flsub,efgtoa@h
  2239   000D22  C07A  F0B0         	movff	?___flsub+1,efgtoa@h+1
  2240   000D26  C07B  F0B1         	movff	?___flsub+2,efgtoa@h+2
  2241   000D2A  C07C  F0B2         	movff	?___flsub+3,efgtoa@h+3
  2242   000D2E                     
  2243                           ;C:\Program Files\Microchip\xc8\v2.40\pic\sources\c99\common\doprnt.c: 659:         u.f 
      +                          = u.f/10.0;
  2244   000D2E  C0BE  F060         	movff	efgtoa@u,___fldiv@b
  2245   000D32  C0BF  F061         	movff	efgtoa@u+1,___fldiv@b+1
  2246   000D36  C0C0  F062         	movff	efgtoa@u+2,___fldiv@b+2
  2247   000D3A  C0C1  F063         	movff	efgtoa@u+3,___fldiv@b+3
  2248   000D3E  0E00               	movlw	0
  2249   000D40  0100               	movlb	0	; () banked
  2250   000D42  6F64               	movwf	___fldiv@a& (0+255),b
  2251   000D44  0E00               	movlw	0
  2252   000D46  6F65               	movwf	(___fldiv@a+1)& (0+255),b
  2253   000D48  0E20               	movlw	32
  2254   000D4A  6F66               	movwf	(___fldiv@a+2)& (0+255),b
  2255   000D4C  0E41               	movlw	65
  2256   000D4E  6F67               	movwf	(___fldiv@a+3)& (0+255),b
  2257   000D50  ECA0  F00F         	call	___fldiv	;wreg free
  2258   000D54  C060  F0BE         	movff	?___fldiv,efgtoa@u
  2259   000D58  C061  F0BF         	movff	?___fldiv+1,efgtoa@u+1
  2260   000D5C  C062  F0C0         	movff	?___fldiv+2,efgtoa@u+2
  2261   000D60  C063  F0C1         	movff	?___fldiv+3,efgtoa@u+3
  2262   000D64                     
  2263                           ;C:\Program Files\Microchip\xc8\v2.40\pic\sources\c99\common\doprnt.c: 660:         ++i;
  2264   000D64  0100               	movlb	0	; () banked
  2265   000D66  4BAD               	infsnz	efgtoa@i& (0+255),f,b
  2266   000D68  2BAE               	incf	(efgtoa@i+1)& (0+255),f,b
  2267   000D6A                     l4665:
  2268                           
  2269                           ; BSR set to: 0
  2270                           ;C:\Program Files\Microchip\xc8\v2.40\pic\sources\c99\common\doprnt.c: 655:     while (i
      +                           < m) {
  2271   000D6A  51A3               	movf	efgtoa@m& (0+255),w,b
  2272   000D6C  5DAD               	subwf	efgtoa@i& (0+255),w,b
  2273   000D6E  51AE               	movf	(efgtoa@i+1)& (0+255),w,b
  2274   000D70  0A80               	xorlw	128
  2275   000D72  6F94               	movwf	??_efgtoa& (0+255),b
  2276   000D74  51A4               	movf	(efgtoa@m+1)& (0+255),w,b
  2277   000D76  0A80               	xorlw	128
  2278   000D78  5994               	subwfb	??_efgtoa& (0+255),w,b
  2279   000D7A  A0D8               	btfss	status,0,c
  2280   000D7C  EFC2  F006         	goto	u5201
  2281   000D80  EFC4  F006         	goto	u5200
  2282   000D84                     u5201:
  2283   000D84  EF39  F006         	goto	l4657
  2284   000D88                     u5200:
  2285   000D88                     
  2286                           ; BSR set to: 0
  2287                           ;C:\Program Files\Microchip\xc8\v2.40\pic\sources\c99\common\doprnt.c: 664:     l = u.f*
      +                          5.0;
  2288   000D88  C0BE  F060         	movff	efgtoa@u,___flmul@b
  2289   000D8C  C0BF  F061         	movff	efgtoa@u+1,___flmul@b+1
  2290   000D90  C0C0  F062         	movff	efgtoa@u+2,___flmul@b+2
  2291   000D94  C0C1  F063         	movff	efgtoa@u+3,___flmul@b+3
  2292   000D98  0E00               	movlw	0
  2293   000D9A  6F64               	movwf	___flmul@a& (0+255),b
  2294   000D9C  0E00               	movlw	0
  2295   000D9E  6F65               	movwf	(___flmul@a+1)& (0+255),b
  2296   000DA0  0EA0               	movlw	160
  2297   000DA2  6F66               	movwf	(___flmul@a+2)& (0+255),b
  2298   000DA4  0E40               	movlw	64
  2299   000DA6  6F67               	movwf	(___flmul@a+3)& (0+255),b
  2300   000DA8  EC75  F00B         	call	___flmul	;wreg free
  2301   000DAC  C060  F0B3         	movff	?___flmul,efgtoa@l
  2302   000DB0  C061  F0B4         	movff	?___flmul+1,efgtoa@l+1
  2303   000DB4  C062  F0B5         	movff	?___flmul+2,efgtoa@l+2
  2304   000DB8  C063  F0B6         	movff	?___flmul+3,efgtoa@l+3
  2305   000DBC                     
  2306                           ;C:\Program Files\Microchip\xc8\v2.40\pic\sources\c99\common\doprnt.c: 665:     if (h < 
      +                          l) {
  2307   000DBC  C0AF  F079         	movff	efgtoa@h,___flge@ff1
  2308   000DC0  C0B0  F07A         	movff	efgtoa@h+1,___flge@ff1+1
  2309   000DC4  C0B1  F07B         	movff	efgtoa@h+2,___flge@ff1+2
  2310   000DC8  C0B2  F07C         	movff	efgtoa@h+3,___flge@ff1+3
  2311   000DCC  C0B3  F07D         	movff	efgtoa@l,___flge@ff2
  2312   000DD0  C0B4  F07E         	movff	efgtoa@l+1,___flge@ff2+1
  2313   000DD4  C0B5  F07F         	movff	efgtoa@l+2,___flge@ff2+2
  2314   000DD8  C0B6  F080         	movff	efgtoa@l+3,___flge@ff2+3
  2315   000DDC  EC7D  F015         	call	___flge	;wreg free
  2316   000DE0  0100               	movlb	0	; () banked
  2317   000DE2  B0D8               	btfsc	status,0,c
  2318   000DE4  EFF6  F006         	goto	u5211
  2319   000DE8  EFF8  F006         	goto	u5210
  2320   000DEC                     u5211:
  2321   000DEC  EF02  F007         	goto	l4673
  2322   000DF0                     u5210:
  2323   000DF0                     
  2324                           ; BSR set to: 0
  2325                           ;C:\Program Files\Microchip\xc8\v2.40\pic\sources\c99\common\doprnt.c: 666:         l = 
      +                          0.0;
  2326   000DF0  0E00               	movlw	0
  2327   000DF2  6FB3               	movwf	efgtoa@l& (0+255),b
  2328   000DF4  0E00               	movlw	0
  2329   000DF6  6FB4               	movwf	(efgtoa@l+1)& (0+255),b
  2330   000DF8  0E00               	movlw	0
  2331   000DFA  6FB5               	movwf	(efgtoa@l+2)& (0+255),b
  2332   000DFC  0E00               	movlw	0
  2333   000DFE  6FB6               	movwf	(efgtoa@l+3)& (0+255),b
  2334                           
  2335                           ;C:\Program Files\Microchip\xc8\v2.40\pic\sources\c99\common\doprnt.c: 667:     } else {
  2336   000E00  EF2B  F007         	goto	l4679
  2337   000E04                     l4673:
  2338                           
  2339                           ; BSR set to: 0
  2340                           ;C:\Program Files\Microchip\xc8\v2.40\pic\sources\c99\common\doprnt.c: 669:         if (
      +                          (h == l) && !(d % 2)) {
  2341   000E04  C0AF  F060         	movff	efgtoa@h,___fleq@ff1
  2342   000E08  C0B0  F061         	movff	efgtoa@h+1,___fleq@ff1+1
  2343   000E0C  C0B1  F062         	movff	efgtoa@h+2,___fleq@ff1+2
  2344   000E10  C0B2  F063         	movff	efgtoa@h+3,___fleq@ff1+3
  2345   000E14  C0B3  F064         	movff	efgtoa@l,___fleq@ff2
  2346   000E18  C0B4  F065         	movff	efgtoa@l+1,___fleq@ff2+1
  2347   000E1C  C0B5  F066         	movff	efgtoa@l+2,___fleq@ff2+2
  2348   000E20  C0B6  F067         	movff	efgtoa@l+3,___fleq@ff2+3
  2349   000E24  EC3E  F017         	call	___fleq	;wreg free
  2350   000E28  0100               	movlb	0	; () banked
  2351   000E2A  A0D8               	btfss	status,0,c
  2352   000E2C  EF1A  F007         	goto	u5221
  2353   000E30  EF1C  F007         	goto	u5220
  2354   000E34                     u5221:
  2355   000E34  EF2B  F007         	goto	l4679
  2356   000E38                     u5220:
  2357   000E38                     
  2358                           ; BSR set to: 0
  2359   000E38  B1A1               	btfsc	efgtoa@d& (0+255),0,b
  2360   000E3A  EF21  F007         	goto	u5231
  2361   000E3E  EF23  F007         	goto	u5230
  2362   000E42                     u5231:
  2363   000E42  EF2B  F007         	goto	l4679
  2364   000E46                     u5230:
  2365   000E46                     
  2366                           ; BSR set to: 0
  2367                           ;C:\Program Files\Microchip\xc8\v2.40\pic\sources\c99\common\doprnt.c: 670:             
      +                          l = 0.0;
  2368   000E46  0E00               	movlw	0
  2369   000E48  6FB3               	movwf	efgtoa@l& (0+255),b
  2370   000E4A  0E00               	movlw	0
  2371   000E4C  6FB4               	movwf	(efgtoa@l+1)& (0+255),b
  2372   000E4E  0E00               	movlw	0
  2373   000E50  6FB5               	movwf	(efgtoa@l+2)& (0+255),b
  2374   000E52  0E00               	movlw	0
  2375   000E54  6FB6               	movwf	(efgtoa@l+3)& (0+255),b
  2376   000E56                     l4679:
  2377                           
  2378                           ; BSR set to: 0
  2379                           ;C:\Program Files\Microchip\xc8\v2.40\pic\sources\c99\common\doprnt.c: 675:     h = g.f 
      +                          + l;
  2380   000E56  C0B8  F060         	movff	efgtoa@g,___fladd@b
  2381   000E5A  C0B9  F061         	movff	efgtoa@g+1,___fladd@b+1
  2382   000E5E  C0BA  F062         	movff	efgtoa@g+2,___fladd@b+2
  2383   000E62  C0BB  F063         	movff	efgtoa@g+3,___fladd@b+3
  2384   000E66  C0B3  F064         	movff	efgtoa@l,___fladd@a
  2385   000E6A  C0B4  F065         	movff	efgtoa@l+1,___fladd@a+1
  2386   000E6E  C0B5  F066         	movff	efgtoa@l+2,___fladd@a+2
  2387   000E72  C0B6  F067         	movff	efgtoa@l+3,___fladd@a+3
  2388   000E76  EC14  F009         	call	___fladd	;wreg free
  2389   000E7A  C060  F0AF         	movff	?___fladd,efgtoa@h
  2390   000E7E  C061  F0B0         	movff	?___fladd+1,efgtoa@h+1
  2391   000E82  C062  F0B1         	movff	?___fladd+2,efgtoa@h+2
  2392   000E86  C063  F0B2         	movff	?___fladd+3,efgtoa@h+3
  2393   000E8A                     
  2394                           ;C:\Program Files\Microchip\xc8\v2.40\pic\sources\c99\common\doprnt.c: 677:  if (h >= (o
      +                          u.f*10.0)) {
  2395   000E8A  C0AF  F079         	movff	efgtoa@h,___flge@ff1
  2396   000E8E  C0B0  F07A         	movff	efgtoa@h+1,___flge@ff1+1
  2397   000E92  C0B1  F07B         	movff	efgtoa@h+2,___flge@ff1+2
  2398   000E96  C0B2  F07C         	movff	efgtoa@h+3,___flge@ff1+3
  2399   000E9A  0E00               	movlw	0
  2400   000E9C  0100               	movlb	0	; () banked
  2401   000E9E  6F64               	movwf	___flmul@a& (0+255),b
  2402   000EA0  0E00               	movlw	0
  2403   000EA2  6F65               	movwf	(___flmul@a+1)& (0+255),b
  2404   000EA4  0E20               	movlw	32
  2405   000EA6  6F66               	movwf	(___flmul@a+2)& (0+255),b
  2406   000EA8  0E41               	movlw	65
  2407   000EAA  6F67               	movwf	(___flmul@a+3)& (0+255),b
  2408   000EAC  C0A9  F060         	movff	efgtoa@ou,___flmul@b
  2409   000EB0  C0AA  F061         	movff	efgtoa@ou+1,___flmul@b+1
  2410   000EB4  C0AB  F062         	movff	efgtoa@ou+2,___flmul@b+2
  2411   000EB8  C0AC  F063         	movff	efgtoa@ou+3,___flmul@b+3
  2412   000EBC  EC75  F00B         	call	___flmul	;wreg free
  2413   000EC0  C060  F07D         	movff	?___flmul,___flge@ff2
  2414   000EC4  C061  F07E         	movff	?___flmul+1,___flge@ff2+1
  2415   000EC8  C062  F07F         	movff	?___flmul+2,___flge@ff2+2
  2416   000ECC  C063  F080         	movff	?___flmul+3,___flge@ff2+3
  2417   000ED0  EC7D  F015         	call	___flge	;wreg free
  2418   000ED4  0100               	movlb	0	; () banked
  2419   000ED6  A0D8               	btfss	status,0,c
  2420   000ED8  EF70  F007         	goto	u5241
  2421   000EDC  EF72  F007         	goto	u5240
  2422   000EE0                     u5241:
  2423   000EE0  EF9A  F007         	goto	l4691
  2424   000EE4                     u5240:
  2425   000EE4                     
  2426                           ; BSR set to: 0
  2427                           ;C:\Program Files\Microchip\xc8\v2.40\pic\sources\c99\common\doprnt.c: 678:   e++;
  2428   000EE4  4BA5               	infsnz	efgtoa@e& (0+255),f,b
  2429   000EE6  2BA6               	incf	(efgtoa@e+1)& (0+255),f,b
  2430   000EE8                     
  2431                           ; BSR set to: 0
  2432                           ;C:\Program Files\Microchip\xc8\v2.40\pic\sources\c99\common\doprnt.c: 679:   ou.f *= 10
      +                          .0;
  2433   000EE8  C0A9  F060         	movff	efgtoa@ou,___flmul@b
  2434   000EEC  C0AA  F061         	movff	efgtoa@ou+1,___flmul@b+1
  2435   000EF0  C0AB  F062         	movff	efgtoa@ou+2,___flmul@b+2
  2436   000EF4  C0AC  F063         	movff	efgtoa@ou+3,___flmul@b+3
  2437   000EF8  0E00               	movlw	0
  2438   000EFA  6F64               	movwf	___flmul@a& (0+255),b
  2439   000EFC  0E00               	movlw	0
  2440   000EFE  6F65               	movwf	(___flmul@a+1)& (0+255),b
  2441   000F00  0E20               	movlw	32
  2442   000F02  6F66               	movwf	(___flmul@a+2)& (0+255),b
  2443   000F04  0E41               	movlw	65
  2444   000F06  6F67               	movwf	(___flmul@a+3)& (0+255),b
  2445   000F08  EC75  F00B         	call	___flmul	;wreg free
  2446   000F0C  C060  F0A9         	movff	?___flmul,efgtoa@ou
  2447   000F10  C061  F0AA         	movff	?___flmul+1,efgtoa@ou+1
  2448   000F14  C062  F0AB         	movff	?___flmul+2,efgtoa@ou+2
  2449   000F18  C063  F0AC         	movff	?___flmul+3,efgtoa@ou+3
  2450   000F1C                     
  2451                           ;C:\Program Files\Microchip\xc8\v2.40\pic\sources\c99\common\doprnt.c: 681:   if (nmode 
      +                          == 'f') {
  2452   000F1C  0E66               	movlw	102
  2453   000F1E  0100               	movlb	0	; () banked
  2454   000F20  19A0               	xorwf	efgtoa@nmode& (0+255),w,b
  2455   000F22  A4D8               	btfss	status,2,c
  2456   000F24  EF96  F007         	goto	u5251
  2457   000F28  EF98  F007         	goto	u5250
  2458   000F2C                     u5251:
  2459   000F2C  EF9A  F007         	goto	l4691
  2460   000F30                     u5250:
  2461   000F30                     
  2462                           ; BSR set to: 0
  2463                           ;C:\Program Files\Microchip\xc8\v2.40\pic\sources\c99\common\doprnt.c: 683:    m++;
  2464   000F30  4BA3               	infsnz	efgtoa@m& (0+255),f,b
  2465   000F32  2BA4               	incf	(efgtoa@m+1)& (0+255),f,b
  2466   000F34                     l4691:
  2467                           
  2468                           ; BSR set to: 0
  2469                           ;C:\Program Files\Microchip\xc8\v2.40\pic\sources\c99\common\doprnt.c: 689:     u = ou;
  2470   000F34  C0A9  F0BE         	movff	efgtoa@ou,efgtoa@u
  2471   000F38  C0AA  F0BF         	movff	efgtoa@ou+1,efgtoa@u+1
  2472   000F3C  C0AB  F0C0         	movff	efgtoa@ou+2,efgtoa@u+2
  2473   000F40  C0AC  F0C1         	movff	efgtoa@ou+3,efgtoa@u+3
  2474   000F44                     
  2475                           ; BSR set to: 0
  2476                           ;C:\Program Files\Microchip\xc8\v2.40\pic\sources\c99\common\doprnt.c: 693:  ne = e;
  2477   000F44  C0A5  F096         	movff	efgtoa@e,efgtoa@ne
  2478   000F48  C0A6  F097         	movff	efgtoa@e+1,efgtoa@ne+1
  2479   000F4C                     
  2480                           ; BSR set to: 0
  2481                           ;C:\Program Files\Microchip\xc8\v2.40\pic\sources\c99\common\doprnt.c: 695:     pp = 0;
  2482   000F4C  0E00               	movlw	0
  2483   000F4E  6F9E               	movwf	efgtoa@pp& (0+255),b
  2484   000F50                     
  2485                           ; BSR set to: 0
  2486                           ;C:\Program Files\Microchip\xc8\v2.40\pic\sources\c99\common\doprnt.c: 696:     t = 0;
  2487   000F50  0E00               	movlw	0
  2488   000F52  6F9B               	movwf	(efgtoa@t+1)& (0+255),b
  2489   000F54  0E00               	movlw	0
  2490   000F56  6F9A               	movwf	efgtoa@t& (0+255),b
  2491   000F58                     
  2492                           ; BSR set to: 0
  2493                           ;C:\Program Files\Microchip\xc8\v2.40\pic\sources\c99\common\doprnt.c: 697:     i = 0;
  2494   000F58  0E00               	movlw	0
  2495   000F5A  6FAE               	movwf	(efgtoa@i+1)& (0+255),b
  2496   000F5C  0E00               	movlw	0
  2497   000F5E  6FAD               	movwf	efgtoa@i& (0+255),b
  2498                           
  2499                           ;C:\Program Files\Microchip\xc8\v2.40\pic\sources\c99\common\doprnt.c: 698:     while ((
      +                          i < m) && (n < (80 - 5))) {
  2500   000F60  EF98  F008         	goto	l4741
  2501   000F64                     l4701:
  2502                           
  2503                           ; BSR set to: 0
  2504                           ;C:\Program Files\Microchip\xc8\v2.40\pic\sources\c99\common\doprnt.c: 699:         l = 
      +                          floorf(h/u.f);
  2505   000F64  C0AF  F060         	movff	efgtoa@h,___fldiv@b
  2506   000F68  C0B0  F061         	movff	efgtoa@h+1,___fldiv@b+1
  2507   000F6C  C0B1  F062         	movff	efgtoa@h+2,___fldiv@b+2
  2508   000F70  C0B2  F063         	movff	efgtoa@h+3,___fldiv@b+3
  2509   000F74  C0BE  F064         	movff	efgtoa@u,___fldiv@a
  2510   000F78  C0BF  F065         	movff	efgtoa@u+1,___fldiv@a+1
  2511   000F7C  C0C0  F066         	movff	efgtoa@u+2,___fldiv@a+2
  2512   000F80  C0C1  F067         	movff	efgtoa@u+3,___fldiv@a+3
  2513   000F84  ECA0  F00F         	call	___fldiv	;wreg free
  2514   000F88  C060  F079         	movff	?___fldiv,floorf@x
  2515   000F8C  C061  F07A         	movff	?___fldiv+1,floorf@x+1
  2516   000F90  C062  F07B         	movff	?___fldiv+2,floorf@x+2
  2517   000F94  C063  F07C         	movff	?___fldiv+3,floorf@x+3
  2518   000F98  EC7B  F012         	call	_floorf	;wreg free
  2519   000F9C  C079  F0B3         	movff	?_floorf,efgtoa@l
  2520   000FA0  C07A  F0B4         	movff	?_floorf+1,efgtoa@l+1
  2521   000FA4  C07B  F0B5         	movff	?_floorf+2,efgtoa@l+2
  2522   000FA8  C07C  F0B6         	movff	?_floorf+3,efgtoa@l+3
  2523                           
  2524                           ;C:\Program Files\Microchip\xc8\v2.40\pic\sources\c99\common\doprnt.c: 700:         d = 
      +                          (int)l > 9 ? 9 : (int)l;
  2525   000FAC  C0B3  F060         	movff	efgtoa@l,___fltol@f1
  2526   000FB0  C0B4  F061         	movff	efgtoa@l+1,___fltol@f1+1
  2527   000FB4  C0B5  F062         	movff	efgtoa@l+2,___fltol@f1+2
  2528   000FB8  C0B6  F063         	movff	efgtoa@l+3,___fltol@f1+3
  2529   000FBC  ECF9  F014         	call	___fltol	;wreg free
  2530   000FC0  0100               	movlb	0	; () banked
  2531   000FC2  BF61               	btfsc	(?___fltol+1)& (0+255),7,b
  2532   000FC4  EFEF  F007         	goto	u5260
  2533   000FC8  5161               	movf	(?___fltol+1)& (0+255),w,b
  2534   000FCA  E107               	bnz	u5261
  2535   000FCC  0E0A               	movlw	10
  2536   000FCE  5D60               	subwf	?___fltol& (0+255),w,b
  2537   000FD0  B0D8               	btfsc	status,0,c
  2538   000FD2  EFED  F007         	goto	u5261
  2539   000FD6  EFEF  F007         	goto	u5260
  2540   000FDA                     u5261:
  2541   000FDA  EFFF  F007         	goto	l4705
  2542   000FDE                     u5260:
  2543   000FDE                     
  2544                           ; BSR set to: 0
  2545   000FDE  C0B3  F060         	movff	efgtoa@l,___fltol@f1
  2546   000FE2  C0B4  F061         	movff	efgtoa@l+1,___fltol@f1+1
  2547   000FE6  C0B5  F062         	movff	efgtoa@l+2,___fltol@f1+2
  2548   000FEA  C0B6  F063         	movff	efgtoa@l+3,___fltol@f1+3
  2549   000FEE  ECF9  F014         	call	___fltol	;wreg free
  2550   000FF2  C060  F0A1         	movff	?___fltol,efgtoa@d
  2551   000FF6  C061  F0A2         	movff	?___fltol+1,efgtoa@d+1
  2552   000FFA  EF03  F008         	goto	l877
  2553   000FFE                     l4705:
  2554                           
  2555                           ; BSR set to: 0
  2556   000FFE  0E00               	movlw	0
  2557   001000  6FA2               	movwf	(efgtoa@d+1)& (0+255),b
  2558   001002  0E09               	movlw	9
  2559   001004  6FA1               	movwf	efgtoa@d& (0+255),b
  2560   001006                     l877:
  2561                           
  2562                           ;C:\Program Files\Microchip\xc8\v2.40\pic\sources\c99\common\doprnt.c: 711:   {;C:\Progr
      +                          am Files\Microchip\xc8\v2.40\pic\sources\c99\common\doprnt.c: 712:             if (!pp &
      +                          & (ne < 0)) {
  2563   001006  0100               	movlb	0	; () banked
  2564   001008  519E               	movf	efgtoa@pp& (0+255),w,b
  2565   00100A  A4D8               	btfss	status,2,c
  2566   00100C  EF0A  F008         	goto	u5271
  2567   001010  EF0C  F008         	goto	u5270
  2568   001014                     u5271:
  2569   001014  EF34  F008         	goto	l4725
  2570   001018                     u5270:
  2571   001018                     
  2572                           ; BSR set to: 0
  2573   001018  BF97               	btfsc	(efgtoa@ne+1)& (0+255),7,b
  2574   00101A  EF13  F008         	goto	u5280
  2575   00101E  EF11  F008         	goto	u5281
  2576   001022                     u5281:
  2577   001022  EF34  F008         	goto	l4725
  2578   001026                     u5280:
  2579   001026                     
  2580                           ; BSR set to: 0
  2581                           ;C:\Program Files\Microchip\xc8\v2.40\pic\sources\c99\common\doprnt.c: 713:             
      +                              dbuf[n++] = '.';
  2582   001026  0E00               	movlw	low _dbuf
  2583   001028  25BC               	addwf	efgtoa@n& (0+255),w,b
  2584   00102A  6ED9               	movwf	fsr2l,c
  2585   00102C  0E01               	movlw	high _dbuf
  2586   00102E  21BD               	addwfc	(efgtoa@n+1)& (0+255),w,b
  2587   001030  6EDA               	movwf	fsr2h,c
  2588   001032  0E2E               	movlw	46
  2589   001034  6EDF               	movwf	indf2,c
  2590   001036                     
  2591                           ; BSR set to: 0
  2592   001036  4BBC               	infsnz	efgtoa@n& (0+255),f,b
  2593   001038  2BBD               	incf	(efgtoa@n+1)& (0+255),f,b
  2594   00103A                     
  2595                           ; BSR set to: 0
  2596                           ;C:\Program Files\Microchip\xc8\v2.40\pic\sources\c99\common\doprnt.c: 714:             
      +                              --w;
  2597   00103A  07A7               	decf	efgtoa@w& (0+255),f,b
  2598   00103C  A0D8               	btfss	status,0,c
  2599   00103E  07A8               	decf	(efgtoa@w+1)& (0+255),f,b
  2600   001040                     
  2601                           ; BSR set to: 0
  2602                           ;C:\Program Files\Microchip\xc8\v2.40\pic\sources\c99\common\doprnt.c: 715:             
      +                              pp = 1;
  2603   001040  0E01               	movlw	1
  2604   001042  6F9E               	movwf	efgtoa@pp& (0+255),b
  2605   001044  EF34  F008         	goto	l4725
  2606   001048                     l4717:
  2607                           
  2608                           ; BSR set to: 0
  2609                           ;C:\Program Files\Microchip\xc8\v2.40\pic\sources\c99\common\doprnt.c: 718:             
      +                              dbuf[n++] = '0';
  2610   001048  0E00               	movlw	low _dbuf
  2611   00104A  25BC               	addwf	efgtoa@n& (0+255),w,b
  2612   00104C  6ED9               	movwf	fsr2l,c
  2613   00104E  0E01               	movlw	high _dbuf
  2614   001050  21BD               	addwfc	(efgtoa@n+1)& (0+255),w,b
  2615   001052  6EDA               	movwf	fsr2h,c
  2616   001054  0E30               	movlw	48
  2617   001056  6EDF               	movwf	indf2,c
  2618   001058                     
  2619                           ; BSR set to: 0
  2620   001058  4BBC               	infsnz	efgtoa@n& (0+255),f,b
  2621   00105A  2BBD               	incf	(efgtoa@n+1)& (0+255),f,b
  2622   00105C                     
  2623                           ; BSR set to: 0
  2624                           ;C:\Program Files\Microchip\xc8\v2.40\pic\sources\c99\common\doprnt.c: 719:             
      +                              --w;
  2625   00105C  07A7               	decf	efgtoa@w& (0+255),f,b
  2626   00105E  A0D8               	btfss	status,0,c
  2627   001060  07A8               	decf	(efgtoa@w+1)& (0+255),f,b
  2628   001062                     
  2629                           ; BSR set to: 0
  2630                           ;C:\Program Files\Microchip\xc8\v2.40\pic\sources\c99\common\doprnt.c: 720:             
      +                              --t;
  2631   001062  079A               	decf	efgtoa@t& (0+255),f,b
  2632   001064  A0D8               	btfss	status,0,c
  2633   001066  079B               	decf	(efgtoa@t+1)& (0+255),f,b
  2634   001068                     l4725:
  2635                           
  2636                           ; BSR set to: 0
  2637                           ;C:\Program Files\Microchip\xc8\v2.40\pic\sources\c99\common\doprnt.c: 717:             
      +                          while (t) {
  2638   001068  519A               	movf	efgtoa@t& (0+255),w,b
  2639   00106A  119B               	iorwf	(efgtoa@t+1)& (0+255),w,b
  2640   00106C  A4D8               	btfss	status,2,c
  2641   00106E  EF3B  F008         	goto	u5291
  2642   001072  EF3D  F008         	goto	u5290
  2643   001076                     u5291:
  2644   001076  EF24  F008         	goto	l4717
  2645   00107A                     u5290:
  2646   00107A                     
  2647                           ; BSR set to: 0
  2648                           ;C:\Program Files\Microchip\xc8\v2.40\pic\sources\c99\common\doprnt.c: 722:             
      +                          dbuf[n++] = (char)((int)'0' + d);
  2649   00107A  0E00               	movlw	low _dbuf
  2650   00107C  25BC               	addwf	efgtoa@n& (0+255),w,b
  2651   00107E  6ED9               	movwf	fsr2l,c
  2652   001080  0E01               	movlw	high _dbuf
  2653   001082  21BD               	addwfc	(efgtoa@n+1)& (0+255),w,b
  2654   001084  6EDA               	movwf	fsr2h,c
  2655   001086  51A1               	movf	efgtoa@d& (0+255),w,b
  2656   001088  0F30               	addlw	48
  2657   00108A  6EDF               	movwf	indf2,c
  2658   00108C                     
  2659                           ; BSR set to: 0
  2660   00108C  4BBC               	infsnz	efgtoa@n& (0+255),f,b
  2661   00108E  2BBD               	incf	(efgtoa@n+1)& (0+255),f,b
  2662   001090                     
  2663                           ; BSR set to: 0
  2664                           ;C:\Program Files\Microchip\xc8\v2.40\pic\sources\c99\common\doprnt.c: 723:             
      +                          --w;
  2665   001090  07A7               	decf	efgtoa@w& (0+255),f,b
  2666   001092  A0D8               	btfss	status,0,c
  2667   001094  07A8               	decf	(efgtoa@w+1)& (0+255),f,b
  2668   001096                     
  2669                           ; BSR set to: 0
  2670                           ;C:\Program Files\Microchip\xc8\v2.40\pic\sources\c99\common\doprnt.c: 724:         };C:
      +                          \Program Files\Microchip\xc8\v2.40\pic\sources\c99\common\doprnt.c: 725:         h -= l*
      +                          u.f;
  2671   001096  C0AF  F079         	movff	efgtoa@h,___flsub@b
  2672   00109A  C0B0  F07A         	movff	efgtoa@h+1,___flsub@b+1
  2673   00109E  C0B1  F07B         	movff	efgtoa@h+2,___flsub@b+2
  2674   0010A2  C0B2  F07C         	movff	efgtoa@h+3,___flsub@b+3
  2675   0010A6  C0B3  F064         	movff	efgtoa@l,___flmul@a
  2676   0010AA  C0B4  F065         	movff	efgtoa@l+1,___flmul@a+1
  2677   0010AE  C0B5  F066         	movff	efgtoa@l+2,___flmul@a+2
  2678   0010B2  C0B6  F067         	movff	efgtoa@l+3,___flmul@a+3
  2679   0010B6  C0BE  F060         	movff	efgtoa@u,___flmul@b
  2680   0010BA  C0BF  F061         	movff	efgtoa@u+1,___flmul@b+1
  2681   0010BE  C0C0  F062         	movff	efgtoa@u+2,___flmul@b+2
  2682   0010C2  C0C1  F063         	movff	efgtoa@u+3,___flmul@b+3
  2683   0010C6  EC75  F00B         	call	___flmul	;wreg free
  2684   0010CA  C060  F07D         	movff	?___flmul,___flsub@a
  2685   0010CE  C061  F07E         	movff	?___flmul+1,___flsub@a+1
  2686   0010D2  C062  F07F         	movff	?___flmul+2,___flsub@a+2
  2687   0010D6  C063  F080         	movff	?___flmul+3,___flsub@a+3
  2688   0010DA  ECC0  F019         	call	___flsub	;wreg free
  2689   0010DE  C079  F0AF         	movff	?___flsub,efgtoa@h
  2690   0010E2  C07A  F0B0         	movff	?___flsub+1,efgtoa@h+1
  2691   0010E6  C07B  F0B1         	movff	?___flsub+2,efgtoa@h+2
  2692   0010EA  C07C  F0B2         	movff	?___flsub+3,efgtoa@h+3
  2693   0010EE                     
  2694                           ;C:\Program Files\Microchip\xc8\v2.40\pic\sources\c99\common\doprnt.c: 726:         u.f 
      +                          = u.f/10.0;
  2695   0010EE  C0BE  F060         	movff	efgtoa@u,___fldiv@b
  2696   0010F2  C0BF  F061         	movff	efgtoa@u+1,___fldiv@b+1
  2697   0010F6  C0C0  F062         	movff	efgtoa@u+2,___fldiv@b+2
  2698   0010FA  C0C1  F063         	movff	efgtoa@u+3,___fldiv@b+3
  2699   0010FE  0E00               	movlw	0
  2700   001100  0100               	movlb	0	; () banked
  2701   001102  6F64               	movwf	___fldiv@a& (0+255),b
  2702   001104  0E00               	movlw	0
  2703   001106  6F65               	movwf	(___fldiv@a+1)& (0+255),b
  2704   001108  0E20               	movlw	32
  2705   00110A  6F66               	movwf	(___fldiv@a+2)& (0+255),b
  2706   00110C  0E41               	movlw	65
  2707   00110E  6F67               	movwf	(___fldiv@a+3)& (0+255),b
  2708   001110  ECA0  F00F         	call	___fldiv	;wreg free
  2709   001114  C060  F0BE         	movff	?___fldiv,efgtoa@u
  2710   001118  C061  F0BF         	movff	?___fldiv+1,efgtoa@u+1
  2711   00111C  C062  F0C0         	movff	?___fldiv+2,efgtoa@u+2
  2712   001120  C063  F0C1         	movff	?___fldiv+3,efgtoa@u+3
  2713   001124                     
  2714                           ;C:\Program Files\Microchip\xc8\v2.40\pic\sources\c99\common\doprnt.c: 727:         --ne
      +                          ;
  2715   001124  0100               	movlb	0	; () banked
  2716   001126  0796               	decf	efgtoa@ne& (0+255),f,b
  2717   001128  A0D8               	btfss	status,0,c
  2718   00112A  0797               	decf	(efgtoa@ne+1)& (0+255),f,b
  2719   00112C                     
  2720                           ; BSR set to: 0
  2721                           ;C:\Program Files\Microchip\xc8\v2.40\pic\sources\c99\common\doprnt.c: 728:         ++i;
  2722   00112C  4BAD               	infsnz	efgtoa@i& (0+255),f,b
  2723   00112E  2BAE               	incf	(efgtoa@i+1)& (0+255),f,b
  2724   001130                     l4741:
  2725                           
  2726                           ; BSR set to: 0
  2727                           ;C:\Program Files\Microchip\xc8\v2.40\pic\sources\c99\common\doprnt.c: 698:     while ((
      +                          i < m) && (n < (80 - 5))) {
  2728   001130  51A3               	movf	efgtoa@m& (0+255),w,b
  2729   001132  5DAD               	subwf	efgtoa@i& (0+255),w,b
  2730   001134  51AE               	movf	(efgtoa@i+1)& (0+255),w,b
  2731   001136  0A80               	xorlw	128
  2732   001138  6F94               	movwf	??_efgtoa& (0+255),b
  2733   00113A  51A4               	movf	(efgtoa@m+1)& (0+255),w,b
  2734   00113C  0A80               	xorlw	128
  2735   00113E  5994               	subwfb	??_efgtoa& (0+255),w,b
  2736   001140  B0D8               	btfsc	status,0,c
  2737   001142  EFA5  F008         	goto	u5301
  2738   001146  EFA7  F008         	goto	u5300
  2739   00114A                     u5301:
  2740   00114A  EFB5  F008         	goto	l4745
  2741   00114E                     u5300:
  2742   00114E                     
  2743                           ; BSR set to: 0
  2744   00114E  BFBD               	btfsc	(efgtoa@n+1)& (0+255),7,b
  2745   001150  EFB3  F008         	goto	u5311
  2746   001154  51BD               	movf	(efgtoa@n+1)& (0+255),w,b
  2747   001156  E109               	bnz	u5310
  2748   001158  0E4B               	movlw	75
  2749   00115A  5DBC               	subwf	efgtoa@n& (0+255),w,b
  2750   00115C  A0D8               	btfss	status,0,c
  2751   00115E  EFB3  F008         	goto	u5311
  2752   001162  EFB5  F008         	goto	u5310
  2753   001166                     u5311:
  2754   001166  EFB2  F007         	goto	l4701
  2755   00116A                     u5310:
  2756   00116A                     l4745:
  2757                           
  2758                           ; BSR set to: 0
  2759                           ;C:\Program Files\Microchip\xc8\v2.40\pic\sources\c99\common\doprnt.c: 735:  i = sizeof(
      +                          dbuf) - 1;
  2760   00116A  0E00               	movlw	0
  2761   00116C  6FAE               	movwf	(efgtoa@i+1)& (0+255),b
  2762   00116E  0E4F               	movlw	79
  2763   001170  6FAD               	movwf	efgtoa@i& (0+255),b
  2764   001172                     
  2765                           ; BSR set to: 0
  2766                           ;C:\Program Files\Microchip\xc8\v2.40\pic\sources\c99\common\doprnt.c: 736:     dbuf[i] 
      +                          = '\0';
  2767   001172  0E00               	movlw	low _dbuf
  2768   001174  25AD               	addwf	efgtoa@i& (0+255),w,b
  2769   001176  6ED9               	movwf	fsr2l,c
  2770   001178  0E01               	movlw	high _dbuf
  2771   00117A  21AE               	addwfc	(efgtoa@i+1)& (0+255),w,b
  2772   00117C  6EDA               	movwf	fsr2h,c
  2773   00117E  0E00               	movlw	0
  2774   001180  6EDF               	movwf	indf2,c
  2775   001182                     
  2776                           ; BSR set to: 0
  2777                           ;C:\Program Files\Microchip\xc8\v2.40\pic\sources\c99\common\doprnt.c: 767:  memcpy(&dbu
      +                          f[i-n], &dbuf[0], (size_t)n);
  2778   001182  0E00               	movlw	low _dbuf
  2779   001184  6F94               	movwf	??_efgtoa& (0+255),b
  2780   001186  0E01               	movlw	high _dbuf
  2781   001188  6F95               	movwf	(??_efgtoa+1)& (0+255),b
  2782   00118A  51BC               	movf	efgtoa@n& (0+255),w,b
  2783   00118C  5F94               	subwf	??_efgtoa& (0+255),f,b
  2784   00118E  51BD               	movf	(efgtoa@n+1)& (0+255),w,b
  2785   001190  5B95               	subwfb	(??_efgtoa+1)& (0+255),f,b
  2786   001192  51AD               	movf	efgtoa@i& (0+255),w,b
  2787   001194  2594               	addwf	??_efgtoa& (0+255),w,b
  2788   001196  6F60               	movwf	memcpy@d1& (0+255),b
  2789   001198  51AE               	movf	(efgtoa@i+1)& (0+255),w,b
  2790   00119A  2195               	addwfc	(??_efgtoa+1)& (0+255),w,b
  2791   00119C  6F61               	movwf	(memcpy@d1+1)& (0+255),b
  2792   00119E  0E00               	movlw	low _dbuf
  2793   0011A0  6F62               	movwf	memcpy@s1& (0+255),b
  2794   0011A2  0E01               	movlw	high _dbuf
  2795   0011A4  6F63               	movwf	(memcpy@s1+1)& (0+255),b
  2796   0011A6  C0BC  F064         	movff	efgtoa@n,memcpy@n
  2797   0011AA  C0BD  F065         	movff	efgtoa@n+1,memcpy@n+1
  2798   0011AE  EC73  F019         	call	_memcpy	;wreg free
  2799   0011B2                     
  2800                           ;C:\Program Files\Microchip\xc8\v2.40\pic\sources\c99\common\doprnt.c: 768:  n = i-n;
  2801   0011B2  0100               	movlb	0	; () banked
  2802   0011B4  51BC               	movf	efgtoa@n& (0+255),w,b
  2803   0011B6  5DAD               	subwf	efgtoa@i& (0+255),w,b
  2804   0011B8  6FBC               	movwf	efgtoa@n& (0+255),b
  2805   0011BA  51BD               	movf	(efgtoa@n+1)& (0+255),w,b
  2806   0011BC  59AE               	subwfb	(efgtoa@i+1)& (0+255),w,b
  2807   0011BE  6FBD               	movwf	(efgtoa@n+1)& (0+255),b
  2808   0011C0                     
  2809                           ; BSR set to: 0
  2810                           ;C:\Program Files\Microchip\xc8\v2.40\pic\sources\c99\common\doprnt.c: 769:  i = sign ==
      +                           0 ? 0 : 1;
  2811   0011C0  51B7               	movf	efgtoa@sign& (0+255),w,b
  2812   0011C2  A4D8               	btfss	status,2,c
  2813   0011C4  EFE6  F008         	goto	u5321
  2814   0011C8  EFE9  F008         	goto	u5320
  2815   0011CC                     u5321:
  2816   0011CC  0E01               	movlw	1
  2817   0011CE  EFEA  F008         	goto	u5330
  2818   0011D2                     u5320:
  2819   0011D2  0E00               	movlw	0
  2820   0011D4                     u5330:
  2821   0011D4  6FAD               	movwf	efgtoa@i& (0+255),b
  2822   0011D6  6BAE               	clrf	(efgtoa@i+1)& (0+255),b
  2823   0011D8                     
  2824                           ; BSR set to: 0
  2825                           ;C:\Program Files\Microchip\xc8\v2.40\pic\sources\c99\common\doprnt.c: 780:  if (sign) {
  2826   0011D8  51B7               	movf	efgtoa@sign& (0+255),w,b
  2827   0011DA  B4D8               	btfsc	status,2,c
  2828   0011DC  EFF2  F008         	goto	u5341
  2829   0011E0  EFF4  F008         	goto	u5340
  2830   0011E4                     u5341:
  2831   0011E4  EFFF  F008         	goto	l4759
  2832   0011E8                     u5340:
  2833   0011E8                     
  2834                           ; BSR set to: 0
  2835                           ;C:\Program Files\Microchip\xc8\v2.40\pic\sources\c99\common\doprnt.c: 781:   dbuf[--n] 
      +                          = sign;
  2836   0011E8  07BC               	decf	efgtoa@n& (0+255),f,b
  2837   0011EA  A0D8               	btfss	status,0,c
  2838   0011EC  07BD               	decf	(efgtoa@n+1)& (0+255),f,b
  2839   0011EE  0E00               	movlw	low _dbuf
  2840   0011F0  25BC               	addwf	efgtoa@n& (0+255),w,b
  2841   0011F2  6ED9               	movwf	fsr2l,c
  2842   0011F4  0E01               	movlw	high _dbuf
  2843   0011F6  21BD               	addwfc	(efgtoa@n+1)& (0+255),w,b
  2844   0011F8  6EDA               	movwf	fsr2h,c
  2845   0011FA  C0B7  FFDF         	movff	efgtoa@sign,indf2
  2846   0011FE                     l4759:
  2847                           
  2848                           ; BSR set to: 0
  2849                           ;C:\Program Files\Microchip\xc8\v2.40\pic\sources\c99\common\doprnt.c: 783:  w -= i;
  2850   0011FE  51AD               	movf	efgtoa@i& (0+255),w,b
  2851   001200  5FA7               	subwf	efgtoa@w& (0+255),f,b
  2852   001202  51AE               	movf	(efgtoa@i+1)& (0+255),w,b
  2853   001204  5BA8               	subwfb	(efgtoa@w+1)& (0+255),f,b
  2854   001206                     
  2855                           ; BSR set to: 0
  2856                           ;C:\Program Files\Microchip\xc8\v2.40\pic\sources\c99\common\doprnt.c: 786:     return (
      +                          void) pad(fp, &dbuf[n], w);
  2857   001206  C08D  F070         	movff	efgtoa@fp,pad@fp
  2858   00120A  C08E  F071         	movff	efgtoa@fp+1,pad@fp+1
  2859   00120E  0E00               	movlw	low _dbuf
  2860   001210  25BC               	addwf	efgtoa@n& (0+255),w,b
  2861   001212  6F72               	movwf	pad@buf& (0+255),b
  2862   001214  0E01               	movlw	high _dbuf
  2863   001216  21BD               	addwfc	(efgtoa@n+1)& (0+255),w,b
  2864   001218  6F73               	movwf	(pad@buf+1)& (0+255),b
  2865   00121A  C0A7  F074         	movff	efgtoa@w,pad@p
  2866   00121E  C0A8  F075         	movff	efgtoa@w+1,pad@p+1
  2867   001222  EC1A  F018         	call	_pad	;wreg free
  2868   001226                     l844:
  2869   001226  0012               	return		;funcret
  2870   001228                     __end_of_efgtoa:
  2871                           	callstack 0
  2872                           
  2873 ;; *************** function _strcpy *****************
  2874 ;; Defined at:
  2875 ;;		line 3 in file "C:\Program Files\Microchip\xc8\v2.40\pic\sources\c99\common\strcpy.c"
  2876 ;; Parameters:    Size  Location     Type
  2877 ;;  dest            2    0[BANK0 ] PTR unsigned char 
  2878 ;;		 -> dbuf(80), 
  2879 ;;  src             2    2[BANK0 ] PTR const unsigned char 
  2880 ;;		 -> STR_6(4), STR_3(4), 
  2881 ;; Auto vars:     Size  Location     Type
  2882 ;;  d               2    6[BANK0 ] PTR unsigned char 
  2883 ;;		 -> dbuf(80), 
  2884 ;;  s               2    4[BANK0 ] PTR const unsigned char 
  2885 ;;		 -> STR_6(4), STR_3(4), 
  2886 ;; Return value:  Size  Location     Type
  2887 ;;                  2    0[BANK0 ] PTR unsigned char 
  2888 ;; Registers used:
  2889 ;;		wreg, fsr2l, fsr2h, status,2, status,0, tblptrl, tblptrh, tblptru
  2890 ;; Tracked objects:
  2891 ;;		On entry : 0/0
  2892 ;;		On exit  : 0/0
  2893 ;;		Unchanged: 0/0
  2894 ;; Data sizes:     COMRAM   BANK0   BANK1   BANK2   BANK3   BANK4   BANK5   BANK6   BANK7
  2895 ;;      Params:         0       4       0       0       0       0       0       0       0
  2896 ;;      Locals:         0       4       0       0       0       0       0       0       0
  2897 ;;      Temps:          0       0       0       0       0       0       0       0       0
  2898 ;;      Totals:         0       8       0       0       0       0       0       0       0
  2899 ;;Total ram usage:        8 bytes
  2900 ;; Hardware stack levels used: 1
  2901 ;; Hardware stack levels required when called: 2
  2902 ;; This function calls:
  2903 ;;		Nothing
  2904 ;; This function is called by:
  2905 ;;		_efgtoa
  2906 ;; This function uses a non-reentrant model
  2907 ;;
  2908                           
  2909                           	psect	text6
  2910   0033C8                     __ptext6:
  2911                           	callstack 0
  2912   0033C8                     _strcpy:
  2913                           	callstack 24
  2914   0033C8  C062  F064         	movff	strcpy@src,strcpy@s
  2915   0033CC  C063  F065         	movff	strcpy@src+1,strcpy@s+1
  2916   0033D0  C060  F066         	movff	strcpy@dest,strcpy@d
  2917   0033D4  C061  F067         	movff	strcpy@dest+1,strcpy@d+1
  2918   0033D8                     l4483:
  2919   0033D8  C064  FFF6         	movff	strcpy@s,tblptrl
  2920   0033DC  C065  FFF7         	movff	strcpy@s+1,tblptrh
  2921   0033E0  0100               	movlb	0	; () banked
  2922   0033E2  4B64               	infsnz	strcpy@s& (0+255),f,b
  2923   0033E4  2B65               	incf	(strcpy@s+1)& (0+255),f,b
  2924   0033E6                     	if	0	;tblptru may be non-zero
  2925   0033E6                     	endif
  2926   0033E6                     	if	0	;tblptru may be non-zero
  2927   0033E6                     	endif
  2928   0033E6  C066  FFD9         	movff	strcpy@d,fsr2l
  2929   0033EA  C067  FFDA         	movff	strcpy@d+1,fsr2h
  2930   0033EE  4B66               	infsnz	strcpy@d& (0+255),f,b
  2931   0033F0  2B67               	incf	(strcpy@d+1)& (0+255),f,b
  2932   0033F2  0008               	tblrd		*
  2933   0033F4  CFF5 FFDF          	movff	tablat,indf2
  2934   0033F8  50DF               	movf	indf2,w,c
  2935   0033FA  A4D8               	btfss	status,2,c
  2936   0033FC  EF02  F01A         	goto	u4971
  2937   003400  EF04  F01A         	goto	u4970
  2938   003404                     u4971:
  2939   003404  EFEC  F019         	goto	l4483
  2940   003408                     u4970:
  2941   003408                     
  2942                           ; BSR set to: 0
  2943   003408  0012               	return		;funcret
  2944   00340A                     __end_of_strcpy:
  2945                           	callstack 0
  2946                           
  2947 ;; *************** function _pad *****************
  2948 ;; Defined at:
  2949 ;;		line 133 in file "C:\Program Files\Microchip\xc8\v2.40\pic\sources\c99\common\doprnt.c"
  2950 ;; Parameters:    Size  Location     Type
  2951 ;;  fp              2   16[BANK0 ] PTR struct _IO_FILE
  2952 ;;		 -> sprintf@f(11), 
  2953 ;;  buf             2   18[BANK0 ] PTR unsigned char 
  2954 ;;		 -> dbuf(80), 
  2955 ;;  p               2   20[BANK0 ] int 
  2956 ;; Auto vars:     Size  Location     Type
  2957 ;;  w               2   25[BANK0 ] int 
  2958 ;;  i               2   23[BANK0 ] int 
  2959 ;; Return value:  Size  Location     Type
  2960 ;;                  1    wreg      void 
  2961 ;; Registers used:
  2962 ;;		wreg, fsr1l, fsr1h, fsr2l, fsr2h, status,2, status,0, cstack
  2963 ;; Tracked objects:
  2964 ;;		On entry : 0/0
  2965 ;;		On exit  : 0/0
  2966 ;;		Unchanged: 0/0
  2967 ;; Data sizes:     COMRAM   BANK0   BANK1   BANK2   BANK3   BANK4   BANK5   BANK6   BANK7
  2968 ;;      Params:         0       6       0       0       0       0       0       0       0
  2969 ;;      Locals:         0       4       0       0       0       0       0       0       0
  2970 ;;      Temps:          0       1       0       0       0       0       0       0       0
  2971 ;;      Totals:         0      11       0       0       0       0       0       0       0
  2972 ;;Total ram usage:       11 bytes
  2973 ;; Hardware stack levels used: 1
  2974 ;; Hardware stack levels required when called: 5
  2975 ;; This function calls:
  2976 ;;		_fputc
  2977 ;;		_fputs
  2978 ;; This function is called by:
  2979 ;;		_efgtoa
  2980 ;; This function uses a non-reentrant model
  2981 ;;
  2982                           
  2983                           	psect	text7
  2984   003034                     __ptext7:
  2985                           	callstack 0
  2986   003034                     _pad:
  2987                           	callstack 21
  2988   003034                     
  2989                           ;C:\Program Files\Microchip\xc8\v2.40\pic\sources\c99\common\doprnt.c: 133: static void 
      +                          pad(FILE *fp, char *buf, int p);C:\Program Files\Microchip\xc8\v2.40\pic\sources\c99\com
      +                          mon\doprnt.c: 134: {;C:\Program Files\Microchip\xc8\v2.40\pic\sources\c99\common\doprnt.
      +                          c: 135:     int i, w;;C:\Program Files\Microchip\xc8\v2.40\pic\sources\c99\common\doprnt
      +                          .c: 145:     w = (p < 0) ? 0 : p;
  2990   003034  0100               	movlb	0	; () banked
  2991   003036  BF75               	btfsc	(pad@p+1)& (0+255),7,b
  2992   003038  EF20  F018         	goto	u4881
  2993   00303C  EF22  F018         	goto	u4880
  2994   003040                     u4881:
  2995   003040  EF28  F018         	goto	l4449
  2996   003044                     u4880:
  2997   003044                     
  2998                           ; BSR set to: 0
  2999   003044  C074  F079         	movff	pad@p,pad@w
  3000   003048  C075  F07A         	movff	pad@p+1,pad@w+1
  3001   00304C  EF2C  F018         	goto	l829
  3002   003050                     l4449:
  3003                           
  3004                           ; BSR set to: 0
  3005   003050  0E00               	movlw	0
  3006   003052  6F7A               	movwf	(pad@w+1)& (0+255),b
  3007   003054  0E00               	movlw	0
  3008   003056  6F79               	movwf	pad@w& (0+255),b
  3009   003058                     l829:
  3010                           
  3011                           ; BSR set to: 0
  3012                           ;C:\Program Files\Microchip\xc8\v2.40\pic\sources\c99\common\doprnt.c: 146:     i = 0;
  3013   003058  0E00               	movlw	0
  3014   00305A  6F78               	movwf	(pad@i+1)& (0+255),b
  3015   00305C  0E00               	movlw	0
  3016   00305E  6F77               	movwf	pad@i& (0+255),b
  3017                           
  3018                           ;C:\Program Files\Microchip\xc8\v2.40\pic\sources\c99\common\doprnt.c: 147:     while (i
      +                           < w) {
  3019   003060  EF3F  F018         	goto	l4455
  3020   003064                     l4451:
  3021                           
  3022                           ; BSR set to: 0
  3023                           ;C:\Program Files\Microchip\xc8\v2.40\pic\sources\c99\common\doprnt.c: 148:         fput
      +                          c(' ', fp);
  3024   003064  0E00               	movlw	0
  3025   003066  6F61               	movwf	(fputc@c+1)& (0+255),b
  3026   003068  0E20               	movlw	32
  3027   00306A  6F60               	movwf	fputc@c& (0+255),b
  3028   00306C  C070  F062         	movff	pad@fp,fputc@fp
  3029   003070  C071  F063         	movff	pad@fp+1,fputc@fp+1
  3030   003074  EC80  F016         	call	_fputc	;wreg free
  3031   003078                     
  3032                           ;C:\Program Files\Microchip\xc8\v2.40\pic\sources\c99\common\doprnt.c: 149:         ++i;
  3033   003078  0100               	movlb	0	; () banked
  3034   00307A  4B77               	infsnz	pad@i& (0+255),f,b
  3035   00307C  2B78               	incf	(pad@i+1)& (0+255),f,b
  3036   00307E                     l4455:
  3037                           
  3038                           ; BSR set to: 0
  3039                           ;C:\Program Files\Microchip\xc8\v2.40\pic\sources\c99\common\doprnt.c: 147:     while (i
      +                           < w) {
  3040   00307E  5179               	movf	pad@w& (0+255),w,b
  3041   003080  5D77               	subwf	pad@i& (0+255),w,b
  3042   003082  5178               	movf	(pad@i+1)& (0+255),w,b
  3043   003084  0A80               	xorlw	128
  3044   003086  6F76               	movwf	??_pad& (0+255),b
  3045   003088  517A               	movf	(pad@w+1)& (0+255),w,b
  3046   00308A  0A80               	xorlw	128
  3047   00308C  5976               	subwfb	??_pad& (0+255),w,b
  3048   00308E  A0D8               	btfss	status,0,c
  3049   003090  EF4C  F018         	goto	u4891
  3050   003094  EF4E  F018         	goto	u4890
  3051   003098                     u4891:
  3052   003098  EF32  F018         	goto	l4451
  3053   00309C                     u4890:
  3054   00309C                     
  3055                           ; BSR set to: 0
  3056                           ;C:\Program Files\Microchip\xc8\v2.40\pic\sources\c99\common\doprnt.c: 156:         fput
      +                          s((const char *)buf, fp);
  3057   00309C  C072  F069         	movff	pad@buf,fputs@s
  3058   0030A0  C073  F06A         	movff	pad@buf+1,fputs@s+1
  3059   0030A4  C070  F06B         	movff	pad@fp,fputs@fp
  3060   0030A8  C071  F06C         	movff	pad@fp+1,fputs@fp+1
  3061   0030AC  EC9C  F019         	call	_fputs	;wreg free
  3062   0030B0  0012               	return		;funcret
  3063   0030B2                     __end_of_pad:
  3064                           	callstack 0
  3065                           
  3066 ;; *************** function _fputs *****************
  3067 ;; Defined at:
  3068 ;;		line 8 in file "C:\Program Files\Microchip\xc8\v2.40\pic\sources\c99\common\nf_fputs.c"
  3069 ;; Parameters:    Size  Location     Type
  3070 ;;  s               2    9[BANK0 ] PTR const unsigned char 
  3071 ;;		 -> dbuf(80), 
  3072 ;;  fp              2   11[BANK0 ] PTR struct _IO_FILE
  3073 ;;		 -> sprintf@f(11), 
  3074 ;; Auto vars:     Size  Location     Type
  3075 ;;  i               2   14[BANK0 ] int 
  3076 ;;  c               1   13[BANK0 ] unsigned char 
  3077 ;; Return value:  Size  Location     Type
  3078 ;;                  2    9[BANK0 ] int 
  3079 ;; Registers used:
  3080 ;;		wreg, fsr1l, fsr1h, fsr2l, fsr2h, status,2, status,0, cstack
  3081 ;; Tracked objects:
  3082 ;;		On entry : 0/0
  3083 ;;		On exit  : 0/0
  3084 ;;		Unchanged: 0/0
  3085 ;; Data sizes:     COMRAM   BANK0   BANK1   BANK2   BANK3   BANK4   BANK5   BANK6   BANK7
  3086 ;;      Params:         0       4       0       0       0       0       0       0       0
  3087 ;;      Locals:         0       3       0       0       0       0       0       0       0
  3088 ;;      Temps:          0       0       0       0       0       0       0       0       0
  3089 ;;      Totals:         0       7       0       0       0       0       0       0       0
  3090 ;;Total ram usage:        7 bytes
  3091 ;; Hardware stack levels used: 1
  3092 ;; Hardware stack levels required when called: 4
  3093 ;; This function calls:
  3094 ;;		_fputc
  3095 ;; This function is called by:
  3096 ;;		_pad
  3097 ;; This function uses a non-reentrant model
  3098 ;;
  3099                           
  3100                           	psect	text8
  3101   003338                     __ptext8:
  3102                           	callstack 0
  3103   003338                     _fputs:
  3104                           	callstack 21
  3105   003338  0E00               	movlw	0
  3106   00333A  0100               	movlb	0	; () banked
  3107   00333C  6F6F               	movwf	(fputs@i+1)& (0+255),b
  3108   00333E  0E00               	movlw	0
  3109   003340  6F6E               	movwf	fputs@i& (0+255),b
  3110   003342  EFAF  F019         	goto	l4101
  3111   003346                     l4097:
  3112                           
  3113                           ; BSR set to: 0
  3114   003346  C06D  F060         	movff	fputs@c,fputc@c
  3115   00334A  6B61               	clrf	(fputc@c+1)& (0+255),b
  3116   00334C  C06B  F062         	movff	fputs@fp,fputc@fp
  3117   003350  C06C  F063         	movff	fputs@fp+1,fputc@fp+1
  3118   003354  EC80  F016         	call	_fputc	;wreg free
  3119   003358  0100               	movlb	0	; () banked
  3120   00335A  4B6E               	infsnz	fputs@i& (0+255),f,b
  3121   00335C  2B6F               	incf	(fputs@i+1)& (0+255),f,b
  3122   00335E                     l4101:
  3123                           
  3124                           ; BSR set to: 0
  3125   00335E  516E               	movf	fputs@i& (0+255),w,b
  3126   003360  2569               	addwf	fputs@s& (0+255),w,b
  3127   003362  6ED9               	movwf	fsr2l,c
  3128   003364  516F               	movf	(fputs@i+1)& (0+255),w,b
  3129   003366  216A               	addwfc	(fputs@s+1)& (0+255),w,b
  3130   003368  6EDA               	movwf	fsr2h,c
  3131   00336A  50DF               	movf	indf2,w,c
  3132   00336C  6F6D               	movwf	fputs@c& (0+255),b
  3133   00336E  516D               	movf	fputs@c& (0+255),w,b
  3134   003370  A4D8               	btfss	status,2,c
  3135   003372  EFBD  F019         	goto	u4341
  3136   003376  EFBF  F019         	goto	u4340
  3137   00337A                     u4341:
  3138   00337A  EFA3  F019         	goto	l4097
  3139   00337E                     u4340:
  3140   00337E                     
  3141                           ; BSR set to: 0
  3142   00337E  0012               	return		;funcret
  3143   003380                     __end_of_fputs:
  3144                           	callstack 0
  3145                           
  3146 ;; *************** function _fputc *****************
  3147 ;; Defined at:
  3148 ;;		line 8 in file "C:\Program Files\Microchip\xc8\v2.40\pic\sources\c99\common\nf_fputc.c"
  3149 ;; Parameters:    Size  Location     Type
  3150 ;;  c               2    0[BANK0 ] int 
  3151 ;;  fp              2    2[BANK0 ] PTR struct _IO_FILE
  3152 ;;		 -> sprintf@f(11), 
  3153 ;; Auto vars:     Size  Location     Type
  3154 ;;		None
  3155 ;; Return value:  Size  Location     Type
  3156 ;;                  2    0[BANK0 ] int 
  3157 ;; Registers used:
  3158 ;;		wreg, fsr1l, fsr1h, fsr2l, fsr2h, status,2, status,0, cstack
  3159 ;; Tracked objects:
  3160 ;;		On entry : 0/0
  3161 ;;		On exit  : 0/0
  3162 ;;		Unchanged: 0/0
  3163 ;; Data sizes:     COMRAM   BANK0   BANK1   BANK2   BANK3   BANK4   BANK5   BANK6   BANK7
  3164 ;;      Params:         0       4       0       0       0       0       0       0       0
  3165 ;;      Locals:         0       0       0       0       0       0       0       0       0
  3166 ;;      Temps:          0       5       0       0       0       0       0       0       0
  3167 ;;      Totals:         0       9       0       0       0       0       0       0       0
  3168 ;;Total ram usage:        9 bytes
  3169 ;; Hardware stack levels used: 1
  3170 ;; Hardware stack levels required when called: 3
  3171 ;; This function calls:
  3172 ;;		_putch
  3173 ;; This function is called by:
  3174 ;;		_pad
  3175 ;;		_vfpfcnvrt
  3176 ;;		_fputs
  3177 ;; This function uses a non-reentrant model
  3178 ;;
  3179                           
  3180                           	psect	text9
  3181   002D00                     __ptext9:
  3182                           	callstack 0
  3183   002D00                     _fputc:
  3184                           	callstack 24
  3185   002D00  0100               	movlb	0	; () banked
  3186   002D02  5162               	movf	fputc@fp& (0+255),w,b
  3187   002D04  1163               	iorwf	(fputc@fp+1)& (0+255),w,b
  3188   002D06  B4D8               	btfsc	status,2,c
  3189   002D08  EF88  F016         	goto	u3911
  3190   002D0C  EF8A  F016         	goto	u3910
  3191   002D10                     u3911:
  3192   002D10  EF93  F016         	goto	l3883
  3193   002D14                     u3910:
  3194   002D14                     
  3195                           ; BSR set to: 0
  3196   002D14  5162               	movf	fputc@fp& (0+255),w,b
  3197   002D16  1163               	iorwf	(fputc@fp+1)& (0+255),w,b
  3198   002D18  A4D8               	btfss	status,2,c
  3199   002D1A  EF91  F016         	goto	u3921
  3200   002D1E  EF93  F016         	goto	u3920
  3201   002D22                     u3921:
  3202   002D22  EF98  F016         	goto	l3885
  3203   002D26                     u3920:
  3204   002D26                     l3883:
  3205                           
  3206                           ; BSR set to: 0
  3207   002D26  5160               	movf	fputc@c& (0+255),w,b
  3208   002D28  EC53  F01A         	call	_putch
  3209   002D2C  EFE5  F016         	goto	l960
  3210   002D30                     l3885:
  3211                           
  3212                           ; BSR set to: 0
  3213   002D30  EE20 F009          	lfsr	2,9
  3214   002D34  5162               	movf	fputc@fp& (0+255),w,b
  3215   002D36  26D9               	addwf	fsr2l,f,c
  3216   002D38  5163               	movf	(fputc@fp+1)& (0+255),w,b
  3217   002D3A  22DA               	addwfc	fsr2h,f,c
  3218   002D3C  50DE               	movf	postinc2,w,c
  3219   002D3E  10DE               	iorwf	postinc2,w,c
  3220   002D40  B4D8               	btfsc	status,2,c
  3221   002D42  EFA5  F016         	goto	u3931
  3222   002D46  EFA7  F016         	goto	u3930
  3223   002D4A                     u3931:
  3224   002D4A  EFC2  F016         	goto	l3889
  3225   002D4E                     u3930:
  3226   002D4E                     
  3227                           ; BSR set to: 0
  3228   002D4E  EE20 F009          	lfsr	2,9
  3229   002D52  5162               	movf	fputc@fp& (0+255),w,b
  3230   002D54  26D9               	addwf	fsr2l,f,c
  3231   002D56  5163               	movf	(fputc@fp+1)& (0+255),w,b
  3232   002D58  22DA               	addwfc	fsr2h,f,c
  3233   002D5A  EE10 F003          	lfsr	1,3
  3234   002D5E  5162               	movf	fputc@fp& (0+255),w,b
  3235   002D60  26E1               	addwf	fsr1l,f,c
  3236   002D62  5163               	movf	(fputc@fp+1)& (0+255),w,b
  3237   002D64  22E2               	addwfc	fsr1h,f,c
  3238   002D66  50DE               	movf	postinc2,w,c
  3239   002D68  5CE6               	subwf	postinc1,w,c
  3240   002D6A  50E6               	movf	postinc1,w,c
  3241   002D6C  0A80               	xorlw	128
  3242   002D6E  6F68               	movwf	(??_fputc+4)& (0+255),b
  3243   002D70  50DE               	movf	postinc2,w,c
  3244   002D72  0A80               	xorlw	128
  3245   002D74  5968               	subwfb	(??_fputc+4)& (0+255),w,b
  3246   002D76  B0D8               	btfsc	status,0,c
  3247   002D78  EFC0  F016         	goto	u3941
  3248   002D7C  EFC2  F016         	goto	u3940
  3249   002D80                     u3941:
  3250   002D80  EFE5  F016         	goto	l960
  3251   002D84                     u3940:
  3252   002D84                     l3889:
  3253                           
  3254                           ; BSR set to: 0
  3255   002D84  EE20 F003          	lfsr	2,3
  3256   002D88  5162               	movf	fputc@fp& (0+255),w,b
  3257   002D8A  26D9               	addwf	fsr2l,f,c
  3258   002D8C  5163               	movf	(fputc@fp+1)& (0+255),w,b
  3259   002D8E  22DA               	addwfc	fsr2h,f,c
  3260   002D90  CFDE F064          	movff	postinc2,??_fputc
  3261   002D94  CFDD F065          	movff	postdec2,??_fputc+1
  3262   002D98  C062  FFD9         	movff	fputc@fp,fsr2l
  3263   002D9C  C063  FFDA         	movff	fputc@fp+1,fsr2h
  3264   002DA0  CFDE F066          	movff	postinc2,??_fputc+2
  3265   002DA4  CFDD F067          	movff	postdec2,??_fputc+3
  3266   002DA8  5164               	movf	??_fputc& (0+255),w,b
  3267   002DAA  2566               	addwf	(??_fputc+2)& (0+255),w,b
  3268   002DAC  6ED9               	movwf	fsr2l,c
  3269   002DAE  5165               	movf	(??_fputc+1)& (0+255),w,b
  3270   002DB0  2167               	addwfc	(??_fputc+3)& (0+255),w,b
  3271   002DB2  6EDA               	movwf	fsr2h,c
  3272   002DB4  C060  FFDF         	movff	fputc@c,indf2
  3273   002DB8  EE20 F003          	lfsr	2,3
  3274   002DBC  5162               	movf	fputc@fp& (0+255),w,b
  3275   002DBE  26D9               	addwf	fsr2l,f,c
  3276   002DC0  5163               	movf	(fputc@fp+1)& (0+255),w,b
  3277   002DC2  22DA               	addwfc	fsr2h,f,c
  3278   002DC4  2ADE               	incf	postinc2,f,c
  3279   002DC6  0E00               	movlw	0
  3280   002DC8  22DD               	addwfc	postdec2,f,c
  3281   002DCA                     l960:
  3282   002DCA  0012               	return		;funcret
  3283   002DCC                     __end_of_fputc:
  3284                           	callstack 0
  3285                           
  3286 ;; *************** function _putch *****************
  3287 ;; Defined at:
  3288 ;;		line 7 in file "C:\Program Files\Microchip\xc8\v2.40\pic\sources\c99\common\putch.c"
  3289 ;; Parameters:    Size  Location     Type
  3290 ;;  c               1    wreg     unsigned char 
  3291 ;; Auto vars:     Size  Location     Type
  3292 ;;  c               1    0[COMRAM] unsigned char 
  3293 ;; Return value:  Size  Location     Type
  3294 ;;                  1    wreg      void 
  3295 ;; Registers used:
  3296 ;;		wreg
  3297 ;; Tracked objects:
  3298 ;;		On entry : 0/0
  3299 ;;		On exit  : 0/0
  3300 ;;		Unchanged: 0/0
  3301 ;; Data sizes:     COMRAM   BANK0   BANK1   BANK2   BANK3   BANK4   BANK5   BANK6   BANK7
  3302 ;;      Params:         0       0       0       0       0       0       0       0       0
  3303 ;;      Locals:         0       0       0       0       0       0       0       0       0
  3304 ;;      Temps:          0       0       0       0       0       0       0       0       0
  3305 ;;      Totals:         0       0       0       0       0       0       0       0       0
  3306 ;;Total ram usage:        0 bytes
  3307 ;; Hardware stack levels used: 1
  3308 ;; Hardware stack levels required when called: 2
  3309 ;; This function calls:
  3310 ;;		Nothing
  3311 ;; This function is called by:
  3312 ;;		_fputc
  3313 ;; This function uses a non-reentrant model
  3314 ;;
  3315                           
  3316                           	psect	text10
  3317   0034A6                     __ptext10:
  3318                           	callstack 0
  3319   0034A6                     _putch:
  3320                           	callstack 24
  3321   0034A6  0012               	return		;funcret
  3322   0034A8                     __end_of_putch:
  3323                           	callstack 0
  3324                           
  3325 ;; *************** function _memcpy *****************
  3326 ;; Defined at:
  3327 ;;		line 4 in file "C:\Program Files\Microchip\xc8\v2.40\pic\sources\c99\common\memcpy.c"
  3328 ;; Parameters:    Size  Location     Type
  3329 ;;  d1              2    0[BANK0 ] PTR void 
  3330 ;;		 -> dbuf(80), 
  3331 ;;  s1              2    2[BANK0 ] PTR const void 
  3332 ;;		 -> dbuf(80), 
  3333 ;;  n               2    4[BANK0 ] unsigned int 
  3334 ;; Auto vars:     Size  Location     Type
  3335 ;;  s               2    9[BANK0 ] PTR const unsigned char 
  3336 ;;		 -> dbuf(80), 
  3337 ;;  d               2    7[BANK0 ] PTR unsigned char 
  3338 ;;		 -> dbuf(80), 
  3339 ;;  tmp             1    6[BANK0 ] unsigned char 
  3340 ;; Return value:  Size  Location     Type
  3341 ;;                  2    0[BANK0 ] PTR void 
  3342 ;; Registers used:
  3343 ;;		wreg, fsr2l, fsr2h, status,2, status,0
  3344 ;; Tracked objects:
  3345 ;;		On entry : 0/0
  3346 ;;		On exit  : 0/0
  3347 ;;		Unchanged: 0/0
  3348 ;; Data sizes:     COMRAM   BANK0   BANK1   BANK2   BANK3   BANK4   BANK5   BANK6   BANK7
  3349 ;;      Params:         0       6       0       0       0       0       0       0       0
  3350 ;;      Locals:         0       5       0       0       0       0       0       0       0
  3351 ;;      Temps:          0       0       0       0       0       0       0       0       0
  3352 ;;      Totals:         0      11       0       0       0       0       0       0       0
  3353 ;;Total ram usage:       11 bytes
  3354 ;; Hardware stack levels used: 1
  3355 ;; Hardware stack levels required when called: 2
  3356 ;; This function calls:
  3357 ;;		Nothing
  3358 ;; This function is called by:
  3359 ;;		_efgtoa
  3360 ;; This function uses a non-reentrant model
  3361 ;;
  3362                           
  3363                           	psect	text11
  3364   0032E6                     __ptext11:
  3365                           	callstack 0
  3366   0032E6                     _memcpy:
  3367                           	callstack 24
  3368   0032E6  C062  F069         	movff	memcpy@s1,memcpy@s
  3369   0032EA  C063  F06A         	movff	memcpy@s1+1,memcpy@s+1
  3370   0032EE  C060  F067         	movff	memcpy@d1,memcpy@d
  3371   0032F2  C061  F068         	movff	memcpy@d1+1,memcpy@d+1
  3372   0032F6  EF8D  F019         	goto	l4499
  3373   0032FA                     l4491:
  3374                           
  3375                           ; BSR set to: 0
  3376   0032FA  C069  FFD9         	movff	memcpy@s,fsr2l
  3377   0032FE  C06A  FFDA         	movff	memcpy@s+1,fsr2h
  3378   003302  50DF               	movf	indf2,w,c
  3379   003304  6F66               	movwf	memcpy@tmp& (0+255),b
  3380   003306                     
  3381                           ; BSR set to: 0
  3382   003306  4B69               	infsnz	memcpy@s& (0+255),f,b
  3383   003308  2B6A               	incf	(memcpy@s+1)& (0+255),f,b
  3384   00330A                     
  3385                           ; BSR set to: 0
  3386   00330A  C067  FFD9         	movff	memcpy@d,fsr2l
  3387   00330E  C068  FFDA         	movff	memcpy@d+1,fsr2h
  3388   003312  C066  FFDF         	movff	memcpy@tmp,indf2
  3389   003316                     
  3390                           ; BSR set to: 0
  3391   003316  4B67               	infsnz	memcpy@d& (0+255),f,b
  3392   003318  2B68               	incf	(memcpy@d+1)& (0+255),f,b
  3393   00331A                     l4499:
  3394   00331A  0100               	movlb	0	; () banked
  3395   00331C  0764               	decf	memcpy@n& (0+255),f,b
  3396   00331E  A0D8               	btfss	status,0,c
  3397   003320  0765               	decf	(memcpy@n+1)& (0+255),f,b
  3398   003322  2964               	incf	memcpy@n& (0+255),w,b
  3399   003324  E106               	bnz	u4991
  3400   003326  2965               	incf	(memcpy@n+1)& (0+255),w,b
  3401   003328  A4D8               	btfss	status,2,c
  3402   00332A  EF99  F019         	goto	u4991
  3403   00332E  EF9B  F019         	goto	u4990
  3404   003332                     u4991:
  3405   003332  EF7D  F019         	goto	l4491
  3406   003336                     u4990:
  3407   003336                     
  3408                           ; BSR set to: 0
  3409   003336  0012               	return		;funcret
  3410   003338                     __end_of_memcpy:
  3411                           	callstack 0
  3412                           
  3413 ;; *************** function _labs *****************
  3414 ;; Defined at:
  3415 ;;		line 1 in file "C:\Program Files\Microchip\xc8\v2.40\pic\sources\c99\common\labs.c"
  3416 ;; Parameters:    Size  Location     Type
  3417 ;;  a               4    0[BANK0 ] long 
  3418 ;; Auto vars:     Size  Location     Type
  3419 ;;		None
  3420 ;; Return value:  Size  Location     Type
  3421 ;;                  4    0[BANK0 ] long 
  3422 ;; Registers used:
  3423 ;;		wreg, status,2, status,0
  3424 ;; Tracked objects:
  3425 ;;		On entry : 0/0
  3426 ;;		On exit  : 0/0
  3427 ;;		Unchanged: 0/0
  3428 ;; Data sizes:     COMRAM   BANK0   BANK1   BANK2   BANK3   BANK4   BANK5   BANK6   BANK7
  3429 ;;      Params:         0       4       0       0       0       0       0       0       0
  3430 ;;      Locals:         0       0       0       0       0       0       0       0       0
  3431 ;;      Temps:          0       4       0       0       0       0       0       0       0
  3432 ;;      Totals:         0       8       0       0       0       0       0       0       0
  3433 ;;Total ram usage:        8 bytes
  3434 ;; Hardware stack levels used: 1
  3435 ;; Hardware stack levels required when called: 2
  3436 ;; This function calls:
  3437 ;;		Nothing
  3438 ;; This function is called by:
  3439 ;;		_efgtoa
  3440 ;; This function uses a non-reentrant model
  3441 ;;
  3442                           
  3443                           	psect	text12
  3444   003122                     __ptext12:
  3445                           	callstack 0
  3446   003122                     _labs:
  3447                           	callstack 24
  3448   003122  0100               	movlb	0	; () banked
  3449   003124  BF63               	btfsc	(labs@a+3)& (0+255),7,b
  3450   003126  EFA1  F018         	goto	u4980
  3451   00312A  5163               	movf	(labs@a+3)& (0+255),w,b
  3452   00312C  1162               	iorwf	(labs@a+2)& (0+255),w,b
  3453   00312E  1161               	iorwf	(labs@a+1)& (0+255),w,b
  3454   003130  E106               	bnz	u4981
  3455   003132  0560               	decf	labs@a& (0+255),w,b
  3456   003134  B0D8               	btfsc	status,0,c
  3457   003136  EF9F  F018         	goto	u4981
  3458   00313A  EFA1  F018         	goto	u4980
  3459   00313E                     u4981:
  3460   00313E  EFBC  F018         	goto	l939
  3461   003142                     u4980:
  3462   003142                     
  3463                           ; BSR set to: 0
  3464   003142  C060  F064         	movff	labs@a,??_labs
  3465   003146  C061  F065         	movff	labs@a+1,??_labs+1
  3466   00314A  C062  F066         	movff	labs@a+2,??_labs+2
  3467   00314E  C063  F067         	movff	labs@a+3,??_labs+3
  3468   003152  1F64               	comf	??_labs& (0+255),f,b
  3469   003154  1F65               	comf	(??_labs+1)& (0+255),f,b
  3470   003156  1F66               	comf	(??_labs+2)& (0+255),f,b
  3471   003158  1F67               	comf	(??_labs+3)& (0+255),f,b
  3472   00315A  2B64               	incf	??_labs& (0+255),f,b
  3473   00315C  0E00               	movlw	0
  3474   00315E  2365               	addwfc	(??_labs+1)& (0+255),f,b
  3475   003160  2366               	addwfc	(??_labs+2)& (0+255),f,b
  3476   003162  2367               	addwfc	(??_labs+3)& (0+255),f,b
  3477   003164  C064  F060         	movff	??_labs,?_labs
  3478   003168  C065  F061         	movff	??_labs+1,?_labs+1
  3479   00316C  C066  F062         	movff	??_labs+2,?_labs+2
  3480   003170  C067  F063         	movff	??_labs+3,?_labs+3
  3481   003174  EFC4  F018         	goto	l942
  3482   003178                     l939:
  3483                           
  3484                           ; BSR set to: 0
  3485   003178  C060  F060         	movff	labs@a,?_labs
  3486   00317C  C061  F061         	movff	labs@a+1,?_labs+1
  3487   003180  C062  F062         	movff	labs@a+2,?_labs+2
  3488   003184  C063  F063         	movff	labs@a+3,?_labs+3
  3489   003188                     l942:
  3490                           
  3491                           ; BSR set to: 0
  3492   003188  0012               	return		;funcret
  3493   00318A                     __end_of_labs:
  3494                           	callstack 0
  3495                           
  3496 ;; *************** function _floorf *****************
  3497 ;; Defined at:
  3498 ;;		line 3 in file "C:\Program Files\Microchip\xc8\v2.40\pic\sources\c99\common\floorf.c"
  3499 ;; Parameters:    Size  Location     Type
  3500 ;;  x               4   25[BANK0 ] float 
  3501 ;; Auto vars:     Size  Location     Type
  3502 ;;  u               4   41[BANK0 ] struct .
  3503 ;;  m               4   35[BANK0 ] unsigned long 
  3504 ;;  e               2   39[BANK0 ] int 
  3505 ;; Return value:  Size  Location     Type
  3506 ;;                  4   25[BANK0 ] float 
  3507 ;; Registers used:
  3508 ;;		wreg, status,2, status,0
  3509 ;; Tracked objects:
  3510 ;;		On entry : 0/0
  3511 ;;		On exit  : 0/0
  3512 ;;		Unchanged: 0/0
  3513 ;; Data sizes:     COMRAM   BANK0   BANK1   BANK2   BANK3   BANK4   BANK5   BANK6   BANK7
  3514 ;;      Params:         0       4       0       0       0       0       0       0       0
  3515 ;;      Locals:         0      10       0       0       0       0       0       0       0
  3516 ;;      Temps:          0       6       0       0       0       0       0       0       0
  3517 ;;      Totals:         0      20       0       0       0       0       0       0       0
  3518 ;;Total ram usage:       20 bytes
  3519 ;; Hardware stack levels used: 1
  3520 ;; Hardware stack levels required when called: 2
  3521 ;; This function calls:
  3522 ;;		Nothing
  3523 ;; This function is called by:
  3524 ;;		_efgtoa
  3525 ;; This function uses a non-reentrant model
  3526 ;;
  3527                           
  3528                           	psect	text13
  3529   0024F6                     __ptext13:
  3530                           	callstack 0
  3531   0024F6                     _floorf:
  3532                           	callstack 24
  3533   0024F6  C0F2  F089         	movff	floorf@F526,floorf@u
  3534   0024FA  C0F3  F08A         	movff	floorf@F526+1,floorf@u+1
  3535   0024FE  C0F4  F08B         	movff	floorf@F526+2,floorf@u+2
  3536   002502  C0F5  F08C         	movff	floorf@F526+3,floorf@u+3
  3537   002506  C079  F089         	movff	floorf@x,floorf@u
  3538   00250A  C07A  F08A         	movff	floorf@x+1,floorf@u+1
  3539   00250E  C07B  F08B         	movff	floorf@x+2,floorf@u+2
  3540   002512  C07C  F08C         	movff	floorf@x+3,floorf@u+3
  3541   002516  0E81               	movlw	129
  3542   002518  0100               	movlb	0	; () banked
  3543   00251A  6F7D               	movwf	??_floorf& (0+255),b
  3544   00251C  0EFF               	movlw	255
  3545   00251E  6F7E               	movwf	(??_floorf+1)& (0+255),b
  3546   002520  C089  F07F         	movff	floorf@u,??_floorf+2
  3547   002524  C08A  F080         	movff	floorf@u+1,??_floorf+3
  3548   002528  C08B  F081         	movff	floorf@u+2,??_floorf+4
  3549   00252C  C08C  F082         	movff	floorf@u+3,??_floorf+5
  3550   002530  0E18               	movlw	24
  3551   002532  EFA0  F012         	goto	u3090
  3552   002536                     u3095:
  3553   002536  90D8               	bcf	status,0,c
  3554   002538  3382               	rrcf	(??_floorf+5)& (0+255),f,b
  3555   00253A  3381               	rrcf	(??_floorf+4)& (0+255),f,b
  3556   00253C  3380               	rrcf	(??_floorf+3)& (0+255),f,b
  3557   00253E  337F               	rrcf	(??_floorf+2)& (0+255),f,b
  3558   002540                     u3090:
  3559   002540  2EE8               	decfsz	wreg,f,c
  3560   002542  EF9B  F012         	goto	u3095
  3561   002546  517F               	movf	(??_floorf+2)& (0+255),w,b
  3562   002548  257D               	addwf	??_floorf& (0+255),w,b
  3563   00254A  6F87               	movwf	floorf@e& (0+255),b
  3564   00254C  0E00               	movlw	0
  3565   00254E  217E               	addwfc	(??_floorf+1)& (0+255),w,b
  3566   002550  6F88               	movwf	(floorf@e+1)& (0+255),b
  3567   002552  BF88               	btfsc	(floorf@e+1)& (0+255),7,b
  3568   002554  EFB5  F012         	goto	u3101
  3569   002558  5188               	movf	(floorf@e+1)& (0+255),w,b
  3570   00255A  E109               	bnz	u3100
  3571   00255C  0E17               	movlw	23
  3572   00255E  5D87               	subwf	floorf@e& (0+255),w,b
  3573   002560  A0D8               	btfss	status,0,c
  3574   002562  EFB5  F012         	goto	u3101
  3575   002566  EFB7  F012         	goto	u3100
  3576   00256A                     u3101:
  3577   00256A  EFC1  F012         	goto	l3067
  3578   00256E                     u3100:
  3579   00256E                     l3065:
  3580                           
  3581                           ; BSR set to: 0
  3582   00256E  C079  F079         	movff	floorf@x,?_floorf
  3583   002572  C07A  F07A         	movff	floorf@x+1,?_floorf+1
  3584   002576  C07B  F07B         	movff	floorf@x+2,?_floorf+2
  3585   00257A  C07C  F07C         	movff	floorf@x+3,?_floorf+3
  3586   00257E  EF85  F013         	goto	l928
  3587   002582                     l3067:
  3588                           
  3589                           ; BSR set to: 0
  3590   002582  BF88               	btfsc	(floorf@e+1)& (0+255),7,b
  3591   002584  EFC6  F012         	goto	u3111
  3592   002588  EFC8  F012         	goto	u3110
  3593   00258C                     u3111:
  3594   00258C  EF39  F013         	goto	l3077
  3595   002590                     u3110:
  3596   002590                     
  3597                           ; BSR set to: 0
  3598   002590  C087  F07D         	movff	floorf@e,??_floorf
  3599   002594  0EFF               	movlw	255
  3600   002596  6F7E               	movwf	(??_floorf+1)& (0+255),b
  3601   002598  0EFF               	movlw	255
  3602   00259A  6F7F               	movwf	(??_floorf+2)& (0+255),b
  3603   00259C  0E7F               	movlw	127
  3604   00259E  6F80               	movwf	(??_floorf+3)& (0+255),b
  3605   0025A0  0E00               	movlw	0
  3606   0025A2  6F81               	movwf	(??_floorf+4)& (0+255),b
  3607   0025A4                     u3125:
  3608   0025A4  677D               	tstfsz	??_floorf& (0+255),b
  3609   0025A6  EFD7  F012         	goto	u3126
  3610   0025AA  EFDF  F012         	goto	u3127
  3611   0025AE                     u3126:
  3612   0025AE  3581               	rlcf	(??_floorf+4)& (0+255),w,b
  3613   0025B0  3381               	rrcf	(??_floorf+4)& (0+255),f,b
  3614   0025B2  3380               	rrcf	(??_floorf+3)& (0+255),f,b
  3615   0025B4  337F               	rrcf	(??_floorf+2)& (0+255),f,b
  3616   0025B6  337E               	rrcf	(??_floorf+1)& (0+255),f,b
  3617   0025B8  2F7D               	decfsz	??_floorf& (0+255),f,b
  3618   0025BA  EFD2  F012         	goto	u3125
  3619   0025BE                     u3127:
  3620   0025BE  C07E  F083         	movff	??_floorf+1,floorf@m
  3621   0025C2  C07F  F084         	movff	??_floorf+2,floorf@m+1
  3622   0025C6  C080  F085         	movff	??_floorf+3,floorf@m+2
  3623   0025CA  C081  F086         	movff	??_floorf+4,floorf@m+3
  3624   0025CE  0100               	movlb	0	; () banked
  3625   0025D0  5183               	movf	floorf@m& (0+255),w,b
  3626   0025D2  1589               	andwf	floorf@u& (0+255),w,b
  3627   0025D4  6F7D               	movwf	??_floorf& (0+255),b
  3628   0025D6  5184               	movf	(floorf@m+1)& (0+255),w,b
  3629   0025D8  158A               	andwf	(floorf@u+1)& (0+255),w,b
  3630   0025DA  6F7E               	movwf	(??_floorf+1)& (0+255),b
  3631   0025DC  5185               	movf	(floorf@m+2)& (0+255),w,b
  3632   0025DE  158B               	andwf	(floorf@u+2)& (0+255),w,b
  3633   0025E0  6F7F               	movwf	(??_floorf+2)& (0+255),b
  3634   0025E2  5186               	movf	(floorf@m+3)& (0+255),w,b
  3635   0025E4  158C               	andwf	(floorf@u+3)& (0+255),w,b
  3636   0025E6  6F80               	movwf	(??_floorf+3)& (0+255),b
  3637   0025E8  517D               	movf	??_floorf& (0+255),w,b
  3638   0025EA  117E               	iorwf	(??_floorf+1)& (0+255),w,b
  3639   0025EC  117F               	iorwf	(??_floorf+2)& (0+255),w,b
  3640   0025EE  1180               	iorwf	(??_floorf+3)& (0+255),w,b
  3641   0025F0  A4D8               	btfss	status,2,c
  3642   0025F2  EFFD  F012         	goto	u3131
  3643   0025F6  EFFF  F012         	goto	u3130
  3644   0025FA                     u3131:
  3645   0025FA  EF01  F013         	goto	l3073
  3646   0025FE                     u3130:
  3647   0025FE  EFB7  F012         	goto	l3065
  3648   002602                     l3073:
  3649                           
  3650                           ; BSR set to: 0
  3651   002602  C089  F07D         	movff	floorf@u,??_floorf
  3652   002606  C08A  F07E         	movff	floorf@u+1,??_floorf+1
  3653   00260A  C08B  F07F         	movff	floorf@u+2,??_floorf+2
  3654   00260E  C08C  F080         	movff	floorf@u+3,??_floorf+3
  3655   002612  0E20               	movlw	32
  3656   002614  EF11  F013         	goto	u3140
  3657   002618                     u3145:
  3658   002618  90D8               	bcf	status,0,c
  3659   00261A  3380               	rrcf	(??_floorf+3)& (0+255),f,b
  3660   00261C  337F               	rrcf	(??_floorf+2)& (0+255),f,b
  3661   00261E  337E               	rrcf	(??_floorf+1)& (0+255),f,b
  3662   002620  337D               	rrcf	??_floorf& (0+255),f,b
  3663   002622                     u3140:
  3664   002622  2EE8               	decfsz	wreg,f,c
  3665   002624  EF0C  F013         	goto	u3145
  3666   002628  517D               	movf	??_floorf& (0+255),w,b
  3667   00262A  117E               	iorwf	(??_floorf+1)& (0+255),w,b
  3668   00262C  117F               	iorwf	(??_floorf+2)& (0+255),w,b
  3669   00262E  1180               	iorwf	(??_floorf+3)& (0+255),w,b
  3670   002630  B4D8               	btfsc	status,2,c
  3671   002632  EF1D  F013         	goto	u3151
  3672   002636  EF1F  F013         	goto	u3150
  3673   00263A                     u3151:
  3674   00263A  EF27  F013         	goto	l931
  3675   00263E                     u3150:
  3676   00263E                     
  3677                           ; BSR set to: 0
  3678   00263E  5183               	movf	floorf@m& (0+255),w,b
  3679   002640  2789               	addwf	floorf@u& (0+255),f,b
  3680   002642  5184               	movf	(floorf@m+1)& (0+255),w,b
  3681   002644  238A               	addwfc	(floorf@u+1)& (0+255),f,b
  3682   002646  5185               	movf	(floorf@m+2)& (0+255),w,b
  3683   002648  238B               	addwfc	(floorf@u+2)& (0+255),f,b
  3684   00264A  5186               	movf	(floorf@m+3)& (0+255),w,b
  3685   00264C  238C               	addwfc	(floorf@u+3)& (0+255),f,b
  3686   00264E                     l931:
  3687                           
  3688                           ; BSR set to: 0
  3689   00264E  1D83               	comf	floorf@m& (0+255),w,b
  3690   002650  6F7D               	movwf	??_floorf& (0+255),b
  3691   002652  1D84               	comf	(floorf@m+1)& (0+255),w,b
  3692   002654  6F7E               	movwf	(??_floorf+1)& (0+255),b
  3693   002656  1D85               	comf	(floorf@m+2)& (0+255),w,b
  3694   002658  6F7F               	movwf	(??_floorf+2)& (0+255),b
  3695   00265A  1D86               	comf	(floorf@m+3)& (0+255),w,b
  3696   00265C  6F80               	movwf	(??_floorf+3)& (0+255),b
  3697   00265E  517D               	movf	??_floorf& (0+255),w,b
  3698   002660  1789               	andwf	floorf@u& (0+255),f,b
  3699   002662  517E               	movf	(??_floorf+1)& (0+255),w,b
  3700   002664  178A               	andwf	(floorf@u+1)& (0+255),f,b
  3701   002666  517F               	movf	(??_floorf+2)& (0+255),w,b
  3702   002668  178B               	andwf	(floorf@u+2)& (0+255),f,b
  3703   00266A  5180               	movf	(??_floorf+3)& (0+255),w,b
  3704   00266C  178C               	andwf	(floorf@u+3)& (0+255),f,b
  3705   00266E  EF7D  F013         	goto	l3085
  3706   002672                     l3077:
  3707                           
  3708                           ; BSR set to: 0
  3709   002672  C089  F07D         	movff	floorf@u,??_floorf
  3710   002676  C08A  F07E         	movff	floorf@u+1,??_floorf+1
  3711   00267A  C08B  F07F         	movff	floorf@u+2,??_floorf+2
  3712   00267E  C08C  F080         	movff	floorf@u+3,??_floorf+3
  3713   002682  0E20               	movlw	32
  3714   002684  EF49  F013         	goto	u3160
  3715   002688                     u3165:
  3716   002688  90D8               	bcf	status,0,c
  3717   00268A  3380               	rrcf	(??_floorf+3)& (0+255),f,b
  3718   00268C  337F               	rrcf	(??_floorf+2)& (0+255),f,b
  3719   00268E  337E               	rrcf	(??_floorf+1)& (0+255),f,b
  3720   002690  337D               	rrcf	??_floorf& (0+255),f,b
  3721   002692                     u3160:
  3722   002692  2EE8               	decfsz	wreg,f,c
  3723   002694  EF44  F013         	goto	u3165
  3724   002698  517D               	movf	??_floorf& (0+255),w,b
  3725   00269A  117E               	iorwf	(??_floorf+1)& (0+255),w,b
  3726   00269C  117F               	iorwf	(??_floorf+2)& (0+255),w,b
  3727   00269E  1180               	iorwf	(??_floorf+3)& (0+255),w,b
  3728   0026A0  A4D8               	btfss	status,2,c
  3729   0026A2  EF55  F013         	goto	u3171
  3730   0026A6  EF57  F013         	goto	u3170
  3731   0026AA                     u3171:
  3732   0026AA  EF61  F013         	goto	l3081
  3733   0026AE                     u3170:
  3734   0026AE                     
  3735                           ; BSR set to: 0
  3736   0026AE  0E00               	movlw	0
  3737   0026B0  6F89               	movwf	floorf@u& (0+255),b
  3738   0026B2  0E00               	movlw	0
  3739   0026B4  6F8A               	movwf	(floorf@u+1)& (0+255),b
  3740   0026B6  0E00               	movlw	0
  3741   0026B8  6F8B               	movwf	(floorf@u+2)& (0+255),b
  3742   0026BA  0E00               	movlw	0
  3743   0026BC  6F8C               	movwf	(floorf@u+3)& (0+255),b
  3744   0026BE  EF7D  F013         	goto	l3085
  3745   0026C2                     l3081:
  3746                           
  3747                           ; BSR set to: 0
  3748   0026C2  90D8               	bcf	status,0,c
  3749   0026C4  3589               	rlcf	floorf@u& (0+255),w,b
  3750   0026C6  6F7D               	movwf	??_floorf& (0+255),b
  3751   0026C8  358A               	rlcf	(floorf@u+1)& (0+255),w,b
  3752   0026CA  6F7E               	movwf	(??_floorf+1)& (0+255),b
  3753   0026CC  358B               	rlcf	(floorf@u+2)& (0+255),w,b
  3754   0026CE  6F7F               	movwf	(??_floorf+2)& (0+255),b
  3755   0026D0  358C               	rlcf	(floorf@u+3)& (0+255),w,b
  3756   0026D2  6F80               	movwf	(??_floorf+3)& (0+255),b
  3757   0026D4  517D               	movf	??_floorf& (0+255),w,b
  3758   0026D6  117E               	iorwf	(??_floorf+1)& (0+255),w,b
  3759   0026D8  117F               	iorwf	(??_floorf+2)& (0+255),w,b
  3760   0026DA  1180               	iorwf	(??_floorf+3)& (0+255),w,b
  3761   0026DC  B4D8               	btfsc	status,2,c
  3762   0026DE  EF73  F013         	goto	u3181
  3763   0026E2  EF75  F013         	goto	u3180
  3764   0026E6                     u3181:
  3765   0026E6  EF7D  F013         	goto	l3085
  3766   0026EA                     u3180:
  3767   0026EA                     
  3768                           ; BSR set to: 0
  3769   0026EA  0E00               	movlw	0
  3770   0026EC  6F89               	movwf	floorf@u& (0+255),b
  3771   0026EE  0E00               	movlw	0
  3772   0026F0  6F8A               	movwf	(floorf@u+1)& (0+255),b
  3773   0026F2  0E80               	movlw	128
  3774   0026F4  6F8B               	movwf	(floorf@u+2)& (0+255),b
  3775   0026F6  0EBF               	movlw	191
  3776   0026F8  6F8C               	movwf	(floorf@u+3)& (0+255),b
  3777   0026FA                     l3085:
  3778                           
  3779                           ; BSR set to: 0
  3780   0026FA  C089  F079         	movff	floorf@u,?_floorf
  3781   0026FE  C08A  F07A         	movff	floorf@u+1,?_floorf+1
  3782   002702  C08B  F07B         	movff	floorf@u+2,?_floorf+2
  3783   002706  C08C  F07C         	movff	floorf@u+3,?_floorf+3
  3784   00270A                     l928:
  3785                           
  3786                           ; BSR set to: 0
  3787   00270A  0012               	return		;funcret
  3788   00270C                     __end_of_floorf:
  3789                           	callstack 0
  3790                           
  3791 ;; *************** function ___fpclassifyf *****************
  3792 ;; Defined at:
  3793 ;;		line 4 in file "C:\Program Files\Microchip\xc8\v2.40\pic\sources\c99\common\__fpclassifyf.c"
  3794 ;; Parameters:    Size  Location     Type
  3795 ;;  x               4    0[BANK0 ] float 
  3796 ;; Auto vars:     Size  Location     Type
  3797 ;;  u               4   10[BANK0 ] struct .
  3798 ;;  e               2    8[BANK0 ] int 
  3799 ;; Return value:  Size  Location     Type
  3800 ;;                  2    0[BANK0 ] int 
  3801 ;; Registers used:
  3802 ;;		wreg, status,2, status,0
  3803 ;; Tracked objects:
  3804 ;;		On entry : 0/0
  3805 ;;		On exit  : 0/0
  3806 ;;		Unchanged: 0/0
  3807 ;; Data sizes:     COMRAM   BANK0   BANK1   BANK2   BANK3   BANK4   BANK5   BANK6   BANK7
  3808 ;;      Params:         0       4       0       0       0       0       0       0       0
  3809 ;;      Locals:         0       6       0       0       0       0       0       0       0
  3810 ;;      Temps:          0       4       0       0       0       0       0       0       0
  3811 ;;      Totals:         0      14       0       0       0       0       0       0       0
  3812 ;;Total ram usage:       14 bytes
  3813 ;; Hardware stack levels used: 1
  3814 ;; Hardware stack levels required when called: 2
  3815 ;; This function calls:
  3816 ;;		Nothing
  3817 ;; This function is called by:
  3818 ;;		_efgtoa
  3819 ;; This function uses a non-reentrant model
  3820 ;;
  3821                           
  3822                           	psect	text14
  3823   002C00                     __ptext14:
  3824                           	callstack 0
  3825   002C00                     ___fpclassifyf:
  3826                           	callstack 24
  3827   002C00  C040  F06A         	movff	___fpclassifyf@F465,___fpclassifyf@u
  3828   002C04  C041  F06B         	movff	___fpclassifyf@F465+1,___fpclassifyf@u+1
  3829   002C08  C042  F06C         	movff	___fpclassifyf@F465+2,___fpclassifyf@u+2
  3830   002C0C  C043  F06D         	movff	___fpclassifyf@F465+3,___fpclassifyf@u+3
  3831   002C10  C060  F06A         	movff	___fpclassifyf@x,___fpclassifyf@u
  3832   002C14  C061  F06B         	movff	___fpclassifyf@x+1,___fpclassifyf@u+1
  3833   002C18  C062  F06C         	movff	___fpclassifyf@x+2,___fpclassifyf@u+2
  3834   002C1C  C063  F06D         	movff	___fpclassifyf@x+3,___fpclassifyf@u+3
  3835   002C20  C06A  F064         	movff	___fpclassifyf@u,??___fpclassifyf
  3836   002C24  C06B  F065         	movff	___fpclassifyf@u+1,??___fpclassifyf+1
  3837   002C28  C06C  F066         	movff	___fpclassifyf@u+2,??___fpclassifyf+2
  3838   002C2C  C06D  F067         	movff	___fpclassifyf@u+3,??___fpclassifyf+3
  3839   002C30  0E18               	movlw	24
  3840   002C32  EF21  F016         	goto	u4900
  3841   002C36                     u4905:
  3842   002C36  0100               	movlb	0	; () banked
  3843   002C38  90D8               	bcf	status,0,c
  3844   002C3A  3367               	rrcf	(??___fpclassifyf+3)& (0+255),f,b
  3845   002C3C  3366               	rrcf	(??___fpclassifyf+2)& (0+255),f,b
  3846   002C3E  3365               	rrcf	(??___fpclassifyf+1)& (0+255),f,b
  3847   002C40  3364               	rrcf	??___fpclassifyf& (0+255),f,b
  3848   002C42                     u4900:
  3849   002C42  2EE8               	decfsz	wreg,f,c
  3850   002C44  EF1B  F016         	goto	u4905
  3851   002C48  5164               	movf	??___fpclassifyf& (0+255),w,b
  3852   002C4A  6F68               	movwf	___fpclassifyf@e& (0+255),b
  3853   002C4C  6B69               	clrf	(___fpclassifyf@e+1)& (0+255),b
  3854   002C4E  5168               	movf	___fpclassifyf@e& (0+255),w,b
  3855   002C50  1169               	iorwf	(___fpclassifyf@e+1)& (0+255),w,b
  3856   002C52  A4D8               	btfss	status,2,c
  3857   002C54  EF2E  F016         	goto	u4911
  3858   002C58  EF30  F016         	goto	u4910
  3859   002C5C                     u4911:
  3860   002C5C  EF50  F016         	goto	l4471
  3861   002C60                     u4910:
  3862   002C60                     
  3863                           ; BSR set to: 0
  3864   002C60  90D8               	bcf	status,0,c
  3865   002C62  356A               	rlcf	___fpclassifyf@u& (0+255),w,b
  3866   002C64  6F64               	movwf	??___fpclassifyf& (0+255),b
  3867   002C66  356B               	rlcf	(___fpclassifyf@u+1)& (0+255),w,b
  3868   002C68  6F65               	movwf	(??___fpclassifyf+1)& (0+255),b
  3869   002C6A  356C               	rlcf	(___fpclassifyf@u+2)& (0+255),w,b
  3870   002C6C  6F66               	movwf	(??___fpclassifyf+2)& (0+255),b
  3871   002C6E  356D               	rlcf	(___fpclassifyf@u+3)& (0+255),w,b
  3872   002C70  6F67               	movwf	(??___fpclassifyf+3)& (0+255),b
  3873   002C72  5164               	movf	??___fpclassifyf& (0+255),w,b
  3874   002C74  1165               	iorwf	(??___fpclassifyf+1)& (0+255),w,b
  3875   002C76  1166               	iorwf	(??___fpclassifyf+2)& (0+255),w,b
  3876   002C78  1167               	iorwf	(??___fpclassifyf+3)& (0+255),w,b
  3877   002C7A  A4D8               	btfss	status,2,c
  3878   002C7C  EF42  F016         	goto	u4921
  3879   002C80  EF44  F016         	goto	u4920
  3880   002C84                     u4921:
  3881   002C84  EF4A  F016         	goto	l4467
  3882   002C88                     u4920:
  3883   002C88                     
  3884                           ; BSR set to: 0
  3885   002C88  0E00               	movlw	0
  3886   002C8A  6F61               	movwf	(?___fpclassifyf+1)& (0+255),b
  3887   002C8C  0E02               	movlw	2
  3888   002C8E  6F60               	movwf	?___fpclassifyf& (0+255),b
  3889   002C90  EF7F  F016         	goto	l921
  3890   002C94                     l4467:
  3891                           
  3892                           ; BSR set to: 0
  3893   002C94  0E00               	movlw	0
  3894   002C96  6F61               	movwf	(?___fpclassifyf+1)& (0+255),b
  3895   002C98  0E03               	movlw	3
  3896   002C9A  6F60               	movwf	?___fpclassifyf& (0+255),b
  3897   002C9C  EF7F  F016         	goto	l921
  3898   002CA0                     l4471:
  3899                           
  3900                           ; BSR set to: 0
  3901   002CA0  2968               	incf	___fpclassifyf@e& (0+255),w,b
  3902   002CA2  1169               	iorwf	(___fpclassifyf@e+1)& (0+255),w,b
  3903   002CA4  A4D8               	btfss	status,2,c
  3904   002CA6  EF57  F016         	goto	u4931
  3905   002CAA  EF59  F016         	goto	u4930
  3906   002CAE                     u4931:
  3907   002CAE  EF7B  F016         	goto	l4477
  3908   002CB2                     u4930:
  3909   002CB2                     
  3910                           ; BSR set to: 0
  3911   002CB2  C06A  F064         	movff	___fpclassifyf@u,??___fpclassifyf
  3912   002CB6  C06B  F065         	movff	___fpclassifyf@u+1,??___fpclassifyf+1
  3913   002CBA  C06C  F066         	movff	___fpclassifyf@u+2,??___fpclassifyf+2
  3914   002CBE  C06D  F067         	movff	___fpclassifyf@u+3,??___fpclassifyf+3
  3915   002CC2  0E09               	movlw	9
  3916   002CC4                     u4945:
  3917   002CC4  90D8               	bcf	status,0,c
  3918   002CC6  3764               	rlcf	??___fpclassifyf& (0+255),f,b
  3919   002CC8  3765               	rlcf	(??___fpclassifyf+1)& (0+255),f,b
  3920   002CCA  3766               	rlcf	(??___fpclassifyf+2)& (0+255),f,b
  3921   002CCC  3767               	rlcf	(??___fpclassifyf+3)& (0+255),f,b
  3922   002CCE  2EE8               	decfsz	wreg,f,c
  3923   002CD0  EF62  F016         	goto	u4945
  3924   002CD4  5164               	movf	??___fpclassifyf& (0+255),w,b
  3925   002CD6  1165               	iorwf	(??___fpclassifyf+1)& (0+255),w,b
  3926   002CD8  1166               	iorwf	(??___fpclassifyf+2)& (0+255),w,b
  3927   002CDA  1167               	iorwf	(??___fpclassifyf+3)& (0+255),w,b
  3928   002CDC  B4D8               	btfsc	status,2,c
  3929   002CDE  EF73  F016         	goto	u4951
  3930   002CE2  EF76  F016         	goto	u4950
  3931   002CE6                     u4951:
  3932   002CE6  0E01               	movlw	1
  3933   002CE8  EF77  F016         	goto	u4960
  3934   002CEC                     u4950:
  3935   002CEC  0E00               	movlw	0
  3936   002CEE                     u4960:
  3937   002CEE  6F60               	movwf	?___fpclassifyf& (0+255),b
  3938   002CF0  6B61               	clrf	(?___fpclassifyf+1)& (0+255),b
  3939   002CF2  EF7F  F016         	goto	l921
  3940   002CF6                     l4477:
  3941                           
  3942                           ; BSR set to: 0
  3943   002CF6  0E00               	movlw	0
  3944   002CF8  6F61               	movwf	(?___fpclassifyf+1)& (0+255),b
  3945   002CFA  0E04               	movlw	4
  3946   002CFC  6F60               	movwf	?___fpclassifyf& (0+255),b
  3947   002CFE                     l921:
  3948                           
  3949                           ; BSR set to: 0
  3950   002CFE  0012               	return		;funcret
  3951   002D00                     __end_of___fpclassifyf:
  3952                           	callstack 0
  3953                           
  3954 ;; *************** function ___fltol *****************
  3955 ;; Defined at:
  3956 ;;		line 43 in file "C:\Program Files\Microchip\xc8\v2.40\pic\sources\c99\common\fltol.c"
  3957 ;; Parameters:    Size  Location     Type
  3958 ;;  f1              4    0[BANK0 ] int 
  3959 ;; Auto vars:     Size  Location     Type
  3960 ;;  exp1            1    9[BANK0 ] unsigned char 
  3961 ;;  sign1           1    8[BANK0 ] unsigned char 
  3962 ;; Return value:  Size  Location     Type
  3963 ;;                  4    0[BANK0 ] long 
  3964 ;; Registers used:
  3965 ;;		wreg, status,2, status,0
  3966 ;; Tracked objects:
  3967 ;;		On entry : 0/0
  3968 ;;		On exit  : 0/0
  3969 ;;		Unchanged: 0/0
  3970 ;; Data sizes:     COMRAM   BANK0   BANK1   BANK2   BANK3   BANK4   BANK5   BANK6   BANK7
  3971 ;;      Params:         0       4       0       0       0       0       0       0       0
  3972 ;;      Locals:         0       2       0       0       0       0       0       0       0
  3973 ;;      Temps:          0       4       0       0       0       0       0       0       0
  3974 ;;      Totals:         0      10       0       0       0       0       0       0       0
  3975 ;;Total ram usage:       10 bytes
  3976 ;; Hardware stack levels used: 1
  3977 ;; Hardware stack levels required when called: 2
  3978 ;; This function calls:
  3979 ;;		Nothing
  3980 ;; This function is called by:
  3981 ;;		_efgtoa
  3982 ;; This function uses a non-reentrant model
  3983 ;;
  3984                           
  3985                           	psect	text15
  3986   0029F2                     __ptext15:
  3987                           	callstack 0
  3988   0029F2                     ___fltol:
  3989                           	callstack 24
  3990   0029F2  0100               	movlb	0	; () banked
  3991   0029F4  3562               	rlcf	(___fltol@f1+2)& (0+255),w,b
  3992   0029F6  3563               	rlcf	(___fltol@f1+3)& (0+255),w,b
  3993   0029F8  6F69               	movwf	___fltol@exp1& (0+255),b
  3994   0029FA  5169               	movf	___fltol@exp1& (0+255),w,b
  3995   0029FC  A4D8               	btfss	status,2,c
  3996   0029FE  EF03  F015         	goto	u4811
  3997   002A02  EF05  F015         	goto	u4810
  3998   002A06                     u4811:
  3999   002A06  EF0F  F015         	goto	l4407
  4000   002A0A                     u4810:
  4001   002A0A                     l4403:
  4002                           
  4003                           ; BSR set to: 0
  4004   002A0A  0E00               	movlw	0
  4005   002A0C  6F60               	movwf	?___fltol& (0+255),b
  4006   002A0E  0E00               	movlw	0
  4007   002A10  6F61               	movwf	(?___fltol+1)& (0+255),b
  4008   002A12  0E00               	movlw	0
  4009   002A14  6F62               	movwf	(?___fltol+2)& (0+255),b
  4010   002A16  0E00               	movlw	0
  4011   002A18  6F63               	movwf	(?___fltol+3)& (0+255),b
  4012   002A1A  EF7C  F015         	goto	l418
  4013   002A1E                     l4407:
  4014                           
  4015                           ; BSR set to: 0
  4016   002A1E  C060  F064         	movff	___fltol@f1,??___fltol
  4017   002A22  C061  F065         	movff	___fltol@f1+1,??___fltol+1
  4018   002A26  C062  F066         	movff	___fltol@f1+2,??___fltol+2
  4019   002A2A  C063  F067         	movff	___fltol@f1+3,??___fltol+3
  4020   002A2E  0E20               	movlw	32
  4021   002A30  EF1F  F015         	goto	u4820
  4022   002A34                     u4825:
  4023   002A34  90D8               	bcf	status,0,c
  4024   002A36  3367               	rrcf	(??___fltol+3)& (0+255),f,b
  4025   002A38  3366               	rrcf	(??___fltol+2)& (0+255),f,b
  4026   002A3A  3365               	rrcf	(??___fltol+1)& (0+255),f,b
  4027   002A3C  3364               	rrcf	??___fltol& (0+255),f,b
  4028   002A3E                     u4820:
  4029   002A3E  2EE8               	decfsz	wreg,f,c
  4030   002A40  EF1A  F015         	goto	u4825
  4031   002A44  5164               	movf	??___fltol& (0+255),w,b
  4032   002A46  6F68               	movwf	___fltol@sign1& (0+255),b
  4033   002A48                     
  4034                           ; BSR set to: 0
  4035   002A48  8F62               	bsf	(___fltol@f1+2)& (0+255),7,b
  4036   002A4A                     
  4037                           ; BSR set to: 0
  4038   002A4A  0EFF               	movlw	255
  4039   002A4C  1760               	andwf	___fltol@f1& (0+255),f,b
  4040   002A4E  0EFF               	movlw	255
  4041   002A50  1761               	andwf	(___fltol@f1+1)& (0+255),f,b
  4042   002A52  0EFF               	movlw	255
  4043   002A54  1762               	andwf	(___fltol@f1+2)& (0+255),f,b
  4044   002A56  0E00               	movlw	0
  4045   002A58  1763               	andwf	(___fltol@f1+3)& (0+255),f,b
  4046   002A5A                     
  4047                           ; BSR set to: 0
  4048   002A5A  0E96               	movlw	150
  4049   002A5C  5F69               	subwf	___fltol@exp1& (0+255),f,b
  4050   002A5E                     
  4051                           ; BSR set to: 0
  4052   002A5E  BF69               	btfsc	___fltol@exp1& (0+255),7,b
  4053   002A60  EF36  F015         	goto	u4830
  4054   002A64  EF34  F015         	goto	u4831
  4055   002A68                     u4831:
  4056   002A68  EF4C  F015         	goto	l4427
  4057   002A6C                     u4830:
  4058   002A6C                     
  4059                           ; BSR set to: 0
  4060   002A6C  5169               	movf	___fltol@exp1& (0+255),w,b
  4061   002A6E  0A80               	xorlw	128
  4062   002A70  0F97               	addlw	151
  4063   002A72  B0D8               	btfsc	status,0,c
  4064   002A74  EF3E  F015         	goto	u4841
  4065   002A78  EF40  F015         	goto	u4840
  4066   002A7C                     u4841:
  4067   002A7C  EF42  F015         	goto	l4423
  4068   002A80                     u4840:
  4069   002A80  EF05  F015         	goto	l4403
  4070   002A84                     l4423:
  4071                           
  4072                           ; BSR set to: 0
  4073   002A84  90D8               	bcf	status,0,c
  4074   002A86  3363               	rrcf	(___fltol@f1+3)& (0+255),f,b
  4075   002A88  3362               	rrcf	(___fltol@f1+2)& (0+255),f,b
  4076   002A8A  3361               	rrcf	(___fltol@f1+1)& (0+255),f,b
  4077   002A8C  3360               	rrcf	___fltol@f1& (0+255),f,b
  4078   002A8E                     
  4079                           ; BSR set to: 0
  4080   002A8E  3F69               	incfsz	___fltol@exp1& (0+255),f,b
  4081   002A90  EF42  F015         	goto	l4423
  4082   002A94  EF64  F015         	goto	l4437
  4083   002A98                     l4427:
  4084                           
  4085                           ; BSR set to: 0
  4086   002A98  0E1F               	movlw	31
  4087   002A9A  6569               	cpfsgt	___fltol@exp1& (0+255),b
  4088   002A9C  EF52  F015         	goto	u4851
  4089   002AA0  EF54  F015         	goto	u4850
  4090   002AA4                     u4851:
  4091   002AA4  EF5C  F015         	goto	l4435
  4092   002AA8                     u4850:
  4093   002AA8  EF05  F015         	goto	l4403
  4094   002AAC                     l4433:
  4095                           
  4096                           ; BSR set to: 0
  4097   002AAC  90D8               	bcf	status,0,c
  4098   002AAE  3760               	rlcf	___fltol@f1& (0+255),f,b
  4099   002AB0  3761               	rlcf	(___fltol@f1+1)& (0+255),f,b
  4100   002AB2  3762               	rlcf	(___fltol@f1+2)& (0+255),f,b
  4101   002AB4  3763               	rlcf	(___fltol@f1+3)& (0+255),f,b
  4102   002AB6  0769               	decf	___fltol@exp1& (0+255),f,b
  4103   002AB8                     l4435:
  4104                           
  4105                           ; BSR set to: 0
  4106   002AB8  5169               	movf	___fltol@exp1& (0+255),w,b
  4107   002ABA  A4D8               	btfss	status,2,c
  4108   002ABC  EF62  F015         	goto	u4861
  4109   002AC0  EF64  F015         	goto	u4860
  4110   002AC4                     u4861:
  4111   002AC4  EF56  F015         	goto	l4433
  4112   002AC8                     u4860:
  4113   002AC8                     l4437:
  4114                           
  4115                           ; BSR set to: 0
  4116   002AC8  5168               	movf	___fltol@sign1& (0+255),w,b
  4117   002ACA  B4D8               	btfsc	status,2,c
  4118   002ACC  EF6A  F015         	goto	u4871
  4119   002AD0  EF6C  F015         	goto	u4870
  4120   002AD4                     u4871:
  4121   002AD4  EF74  F015         	goto	l4441
  4122   002AD8                     u4870:
  4123   002AD8                     
  4124                           ; BSR set to: 0
  4125   002AD8  1F63               	comf	(___fltol@f1+3)& (0+255),f,b
  4126   002ADA  1F62               	comf	(___fltol@f1+2)& (0+255),f,b
  4127   002ADC  1F61               	comf	(___fltol@f1+1)& (0+255),f,b
  4128   002ADE  6D60               	negf	___fltol@f1& (0+255),b
  4129   002AE0  0E00               	movlw	0
  4130   002AE2  2361               	addwfc	(___fltol@f1+1)& (0+255),f,b
  4131   002AE4  2362               	addwfc	(___fltol@f1+2)& (0+255),f,b
  4132   002AE6  2363               	addwfc	(___fltol@f1+3)& (0+255),f,b
  4133   002AE8                     l4441:
  4134                           
  4135                           ; BSR set to: 0
  4136   002AE8  C060  F060         	movff	___fltol@f1,?___fltol
  4137   002AEC  C061  F061         	movff	___fltol@f1+1,?___fltol+1
  4138   002AF0  C062  F062         	movff	___fltol@f1+2,?___fltol+2
  4139   002AF4  C063  F063         	movff	___fltol@f1+3,?___fltol+3
  4140   002AF8                     l418:
  4141                           
  4142                           ; BSR set to: 0
  4143   002AF8  0012               	return		;funcret
  4144   002AFA                     __end_of___fltol:
  4145                           	callstack 0
  4146                           
  4147 ;; *************** function ___flsub *****************
  4148 ;; Defined at:
  4149 ;;		line 245 in file "C:\Program Files\Microchip\xc8\v2.40\pic\sources\c99\common\sprcadd.c"
  4150 ;; Parameters:    Size  Location     Type
  4151 ;;  b               4   25[BANK0 ] long 
  4152 ;;  a               4   29[BANK0 ] long 
  4153 ;; Auto vars:     Size  Location     Type
  4154 ;;		None
  4155 ;; Return value:  Size  Location     Type
  4156 ;;                  4   25[BANK0 ] long 
  4157 ;; Registers used:
  4158 ;;		wreg, status,2, status,0, cstack
  4159 ;; Tracked objects:
  4160 ;;		On entry : 0/0
  4161 ;;		On exit  : 0/0
  4162 ;;		Unchanged: 0/0
  4163 ;; Data sizes:     COMRAM   BANK0   BANK1   BANK2   BANK3   BANK4   BANK5   BANK6   BANK7
  4164 ;;      Params:         0       8       0       0       0       0       0       0       0
  4165 ;;      Locals:         0       0       0       0       0       0       0       0       0
  4166 ;;      Temps:          0       0       0       0       0       0       0       0       0
  4167 ;;      Totals:         0       8       0       0       0       0       0       0       0
  4168 ;;Total ram usage:        8 bytes
  4169 ;; Hardware stack levels used: 1
  4170 ;; Hardware stack levels required when called: 3
  4171 ;; This function calls:
  4172 ;;		___fladd
  4173 ;; This function is called by:
  4174 ;;		_efgtoa
  4175 ;; This function uses a non-reentrant model
  4176 ;;
  4177                           
  4178                           	psect	text16
  4179   003380                     __ptext16:
  4180                           	callstack 0
  4181   003380                     ___flsub:
  4182                           	callstack 23
  4183   003380  0E00               	movlw	0
  4184   003382  0100               	movlb	0	; () banked
  4185   003384  1B7D               	xorwf	___flsub@a& (0+255),f,b
  4186   003386  0E00               	movlw	0
  4187   003388  1B7E               	xorwf	(___flsub@a+1)& (0+255),f,b
  4188   00338A  0E00               	movlw	0
  4189   00338C  1B7F               	xorwf	(___flsub@a+2)& (0+255),f,b
  4190   00338E  0E80               	movlw	128
  4191   003390  1B80               	xorwf	(___flsub@a+3)& (0+255),f,b
  4192   003392                     
  4193                           ; BSR set to: 0
  4194   003392  C079  F060         	movff	___flsub@b,___fladd@b
  4195   003396  C07A  F061         	movff	___flsub@b+1,___fladd@b+1
  4196   00339A  C07B  F062         	movff	___flsub@b+2,___fladd@b+2
  4197   00339E  C07C  F063         	movff	___flsub@b+3,___fladd@b+3
  4198   0033A2  C07D  F064         	movff	___flsub@a,___fladd@a
  4199   0033A6  C07E  F065         	movff	___flsub@a+1,___fladd@a+1
  4200   0033AA  C07F  F066         	movff	___flsub@a+2,___fladd@a+2
  4201   0033AE  C080  F067         	movff	___flsub@a+3,___fladd@a+3
  4202   0033B2  EC14  F009         	call	___fladd	;wreg free
  4203   0033B6  C060  F079         	movff	?___fladd,?___flsub
  4204   0033BA  C061  F07A         	movff	?___fladd+1,?___flsub+1
  4205   0033BE  C062  F07B         	movff	?___fladd+2,?___flsub+2
  4206   0033C2  C063  F07C         	movff	?___fladd+3,?___flsub+3
  4207   0033C6  0012               	return		;funcret
  4208   0033C8                     __end_of___flsub:
  4209                           	callstack 0
  4210                           
  4211 ;; *************** function ___fladd *****************
  4212 ;; Defined at:
  4213 ;;		line 10 in file "C:\Program Files\Microchip\xc8\v2.40\pic\sources\c99\common\sprcadd.c"
  4214 ;; Parameters:    Size  Location     Type
  4215 ;;  b               4    0[BANK0 ] long 
  4216 ;;  a               4    4[BANK0 ] long 
  4217 ;; Auto vars:     Size  Location     Type
  4218 ;;  grs             1   15[BANK0 ] unsigned char 
  4219 ;;  bexp            1   14[BANK0 ] unsigned char 
  4220 ;;  aexp            1   13[BANK0 ] unsigned char 
  4221 ;;  signs           1   12[BANK0 ] unsigned char 
  4222 ;; Return value:  Size  Location     Type
  4223 ;;                  4    0[BANK0 ] unsigned char 
  4224 ;; Registers used:
  4225 ;;		wreg, status,2, status,0
  4226 ;; Tracked objects:
  4227 ;;		On entry : 0/0
  4228 ;;		On exit  : 0/0
  4229 ;;		Unchanged: 0/0
  4230 ;; Data sizes:     COMRAM   BANK0   BANK1   BANK2   BANK3   BANK4   BANK5   BANK6   BANK7
  4231 ;;      Params:         0       8       0       0       0       0       0       0       0
  4232 ;;      Locals:         0       4       0       0       0       0       0       0       0
  4233 ;;      Temps:          0       4       0       0       0       0       0       0       0
  4234 ;;      Totals:         0      16       0       0       0       0       0       0       0
  4235 ;;Total ram usage:       16 bytes
  4236 ;; Hardware stack levels used: 1
  4237 ;; Hardware stack levels required when called: 2
  4238 ;; This function calls:
  4239 ;;		Nothing
  4240 ;; This function is called by:
  4241 ;;		___flsub
  4242 ;;		_efgtoa
  4243 ;; This function uses a non-reentrant model
  4244 ;;
  4245                           
  4246                           	psect	text17
  4247   001228                     __ptext17:
  4248                           	callstack 0
  4249   001228                     ___fladd:
  4250                           	callstack 23
  4251   001228  0100               	movlb	0	; () banked
  4252   00122A  5163               	movf	(___fladd@b+3)& (0+255),w,b
  4253   00122C  0B80               	andlw	128
  4254   00122E  6F6C               	movwf	___fladd@signs& (0+255),b
  4255   001230  5163               	movf	(___fladd@b+3)& (0+255),w,b
  4256   001232  2563               	addwf	(___fladd@b+3)& (0+255),w,b
  4257   001234  6F6E               	movwf	___fladd@bexp& (0+255),b
  4258   001236                     
  4259                           ; BSR set to: 0
  4260   001236  AF62               	btfss	(___fladd@b+2)& (0+255),7,b
  4261   001238  EF20  F009         	goto	u3951
  4262   00123C  EF22  F009         	goto	u3950
  4263   001240                     u3951:
  4264   001240  EF23  F009         	goto	l3899
  4265   001244                     u3950:
  4266   001244                     
  4267                           ; BSR set to: 0
  4268   001244  816E               	bsf	___fladd@bexp& (0+255),0,b
  4269   001246                     l3899:
  4270                           
  4271                           ; BSR set to: 0
  4272   001246  516E               	movf	___fladd@bexp& (0+255),w,b
  4273   001248  B4D8               	btfsc	status,2,c
  4274   00124A  EF29  F009         	goto	u3961
  4275   00124E  EF2B  F009         	goto	u3960
  4276   001252                     u3961:
  4277   001252  EF40  F009         	goto	l3909
  4278   001256                     u3960:
  4279   001256                     
  4280                           ; BSR set to: 0
  4281   001256  296E               	incf	___fladd@bexp& (0+255),w,b
  4282   001258  A4D8               	btfss	status,2,c
  4283   00125A  EF31  F009         	goto	u3971
  4284   00125E  EF33  F009         	goto	u3970
  4285   001262                     u3971:
  4286   001262  EF3B  F009         	goto	l3905
  4287   001266                     u3970:
  4288   001266                     
  4289                           ; BSR set to: 0
  4290   001266  0E00               	movlw	0
  4291   001268  6F60               	movwf	___fladd@b& (0+255),b
  4292   00126A  0E00               	movlw	0
  4293   00126C  6F61               	movwf	(___fladd@b+1)& (0+255),b
  4294   00126E  0E00               	movlw	0
  4295   001270  6F62               	movwf	(___fladd@b+2)& (0+255),b
  4296   001272  0E00               	movlw	0
  4297   001274  6F63               	movwf	(___fladd@b+3)& (0+255),b
  4298   001276                     l3905:
  4299                           
  4300                           ; BSR set to: 0
  4301   001276  8F62               	bsf	(___fladd@b+2)& (0+255),7,b
  4302   001278                     
  4303                           ; BSR set to: 0
  4304   001278  0E00               	movlw	0
  4305   00127A  6F63               	movwf	(___fladd@b+3)& (0+255),b
  4306   00127C  EF48  F009         	goto	l3911
  4307   001280                     l3909:
  4308                           
  4309                           ; BSR set to: 0
  4310   001280  0E00               	movlw	0
  4311   001282  6F60               	movwf	___fladd@b& (0+255),b
  4312   001284  0E00               	movlw	0
  4313   001286  6F61               	movwf	(___fladd@b+1)& (0+255),b
  4314   001288  0E00               	movlw	0
  4315   00128A  6F62               	movwf	(___fladd@b+2)& (0+255),b
  4316   00128C  0E00               	movlw	0
  4317   00128E  6F63               	movwf	(___fladd@b+3)& (0+255),b
  4318   001290                     l3911:
  4319                           
  4320                           ; BSR set to: 0
  4321   001290  5167               	movf	(___fladd@a+3)& (0+255),w,b
  4322   001292  0B80               	andlw	128
  4323   001294  6F6D               	movwf	___fladd@aexp& (0+255),b
  4324   001296                     
  4325                           ; BSR set to: 0
  4326   001296  516C               	movf	___fladd@signs& (0+255),w,b
  4327   001298  196D               	xorwf	___fladd@aexp& (0+255),w,b
  4328   00129A  B4D8               	btfsc	status,2,c
  4329   00129C  EF52  F009         	goto	u3981
  4330   0012A0  EF54  F009         	goto	u3980
  4331   0012A4                     u3981:
  4332   0012A4  EF55  F009         	goto	l3917
  4333   0012A8                     u3980:
  4334   0012A8                     
  4335                           ; BSR set to: 0
  4336   0012A8  8D6C               	bsf	___fladd@signs& (0+255),6,b
  4337   0012AA                     l3917:
  4338                           
  4339                           ; BSR set to: 0
  4340   0012AA  5167               	movf	(___fladd@a+3)& (0+255),w,b
  4341   0012AC  2567               	addwf	(___fladd@a+3)& (0+255),w,b
  4342   0012AE  6F6D               	movwf	___fladd@aexp& (0+255),b
  4343   0012B0                     
  4344                           ; BSR set to: 0
  4345   0012B0  AF66               	btfss	(___fladd@a+2)& (0+255),7,b
  4346   0012B2  EF5D  F009         	goto	u3991
  4347   0012B6  EF5F  F009         	goto	u3990
  4348   0012BA                     u3991:
  4349   0012BA  EF60  F009         	goto	l3923
  4350   0012BE                     u3990:
  4351   0012BE                     
  4352                           ; BSR set to: 0
  4353   0012BE  816D               	bsf	___fladd@aexp& (0+255),0,b
  4354   0012C0                     l3923:
  4355                           
  4356                           ; BSR set to: 0
  4357   0012C0  516D               	movf	___fladd@aexp& (0+255),w,b
  4358   0012C2  B4D8               	btfsc	status,2,c
  4359   0012C4  EF66  F009         	goto	u4001
  4360   0012C8  EF68  F009         	goto	u4000
  4361   0012CC                     u4001:
  4362   0012CC  EF7D  F009         	goto	l3933
  4363   0012D0                     u4000:
  4364   0012D0                     
  4365                           ; BSR set to: 0
  4366   0012D0  296D               	incf	___fladd@aexp& (0+255),w,b
  4367   0012D2  A4D8               	btfss	status,2,c
  4368   0012D4  EF6E  F009         	goto	u4011
  4369   0012D8  EF70  F009         	goto	u4010
  4370   0012DC                     u4011:
  4371   0012DC  EF78  F009         	goto	l3929
  4372   0012E0                     u4010:
  4373   0012E0                     
  4374                           ; BSR set to: 0
  4375   0012E0  0E00               	movlw	0
  4376   0012E2  6F64               	movwf	___fladd@a& (0+255),b
  4377   0012E4  0E00               	movlw	0
  4378   0012E6  6F65               	movwf	(___fladd@a+1)& (0+255),b
  4379   0012E8  0E00               	movlw	0
  4380   0012EA  6F66               	movwf	(___fladd@a+2)& (0+255),b
  4381   0012EC  0E00               	movlw	0
  4382   0012EE  6F67               	movwf	(___fladd@a+3)& (0+255),b
  4383   0012F0                     l3929:
  4384                           
  4385                           ; BSR set to: 0
  4386   0012F0  8F66               	bsf	(___fladd@a+2)& (0+255),7,b
  4387   0012F2                     
  4388                           ; BSR set to: 0
  4389   0012F2  0E00               	movlw	0
  4390   0012F4  6F67               	movwf	(___fladd@a+3)& (0+255),b
  4391   0012F6  EF85  F009         	goto	l3935
  4392   0012FA                     l3933:
  4393                           
  4394                           ; BSR set to: 0
  4395   0012FA  0E00               	movlw	0
  4396   0012FC  6F64               	movwf	___fladd@a& (0+255),b
  4397   0012FE  0E00               	movlw	0
  4398   001300  6F65               	movwf	(___fladd@a+1)& (0+255),b
  4399   001302  0E00               	movlw	0
  4400   001304  6F66               	movwf	(___fladd@a+2)& (0+255),b
  4401   001306  0E00               	movlw	0
  4402   001308  6F67               	movwf	(___fladd@a+3)& (0+255),b
  4403   00130A                     l3935:
  4404                           
  4405                           ; BSR set to: 0
  4406   00130A  516E               	movf	___fladd@bexp& (0+255),w,b
  4407   00130C  5D6D               	subwf	___fladd@aexp& (0+255),w,b
  4408   00130E  B0D8               	btfsc	status,0,c
  4409   001310  EF8C  F009         	goto	u4021
  4410   001314  EF8E  F009         	goto	u4020
  4411   001318                     u4021:
  4412   001318  EFB5  F009         	goto	l3971
  4413   00131C                     u4020:
  4414   00131C                     
  4415                           ; BSR set to: 0
  4416   00131C  AD6C               	btfss	___fladd@signs& (0+255),6,b
  4417   00131E  EF93  F009         	goto	u4031
  4418   001322  EF95  F009         	goto	u4030
  4419   001326                     u4031:
  4420   001326  EF97  F009         	goto	l3941
  4421   00132A                     u4030:
  4422   00132A                     
  4423                           ; BSR set to: 0
  4424   00132A  0E80               	movlw	128
  4425   00132C  1B6C               	xorwf	___fladd@signs& (0+255),f,b
  4426   00132E                     l3941:
  4427                           
  4428                           ; BSR set to: 0
  4429   00132E  C06E  F06F         	movff	___fladd@bexp,___fladd@grs
  4430   001332                     
  4431                           ; BSR set to: 0
  4432   001332  C06D  F06E         	movff	___fladd@aexp,___fladd@bexp
  4433   001336                     
  4434                           ; BSR set to: 0
  4435   001336  C06F  F06D         	movff	___fladd@grs,___fladd@aexp
  4436   00133A                     
  4437                           ; BSR set to: 0
  4438   00133A  C060  F06F         	movff	___fladd@b,___fladd@grs
  4439   00133E                     
  4440                           ; BSR set to: 0
  4441   00133E  C064  F060         	movff	___fladd@a,___fladd@b
  4442   001342                     
  4443                           ; BSR set to: 0
  4444   001342  C06F  F064         	movff	___fladd@grs,___fladd@a
  4445   001346                     
  4446                           ; BSR set to: 0
  4447   001346  C061  F06F         	movff	___fladd@b+1,___fladd@grs
  4448   00134A                     
  4449                           ; BSR set to: 0
  4450   00134A  C065  F061         	movff	___fladd@a+1,___fladd@b+1
  4451   00134E                     
  4452                           ; BSR set to: 0
  4453   00134E  C06F  F065         	movff	___fladd@grs,___fladd@a+1
  4454   001352                     
  4455                           ; BSR set to: 0
  4456   001352  C062  F06F         	movff	___fladd@b+2,___fladd@grs
  4457   001356                     
  4458                           ; BSR set to: 0
  4459   001356  C066  F062         	movff	___fladd@a+2,___fladd@b+2
  4460   00135A                     
  4461                           ; BSR set to: 0
  4462   00135A  C06F  F066         	movff	___fladd@grs,___fladd@a+2
  4463   00135E                     
  4464                           ; BSR set to: 0
  4465   00135E  C063  F06F         	movff	___fladd@b+3,___fladd@grs
  4466   001362                     
  4467                           ; BSR set to: 0
  4468   001362  C067  F063         	movff	___fladd@a+3,___fladd@b+3
  4469   001366                     
  4470                           ; BSR set to: 0
  4471   001366  C06F  F067         	movff	___fladd@grs,___fladd@a+3
  4472   00136A                     l3971:
  4473                           
  4474                           ; BSR set to: 0
  4475   00136A  0E00               	movlw	0
  4476   00136C  6F6F               	movwf	___fladd@grs& (0+255),b
  4477   00136E                     
  4478                           ; BSR set to: 0
  4479   00136E  516E               	movf	___fladd@bexp& (0+255),w,b
  4480   001370  C06D  F068         	movff	___fladd@aexp,??___fladd
  4481   001374  6B69               	clrf	(??___fladd+1)& (0+255),b
  4482   001376  5F68               	subwf	??___fladd& (0+255),f,b
  4483   001378  0E00               	movlw	0
  4484   00137A  5B69               	subwfb	(??___fladd+1)& (0+255),f,b
  4485   00137C  BF69               	btfsc	(??___fladd+1)& (0+255),7,b
  4486   00137E  EFCA  F009         	goto	u4041
  4487   001382  5169               	movf	(??___fladd+1)& (0+255),w,b
  4488   001384  E109               	bnz	u4040
  4489   001386  0E1A               	movlw	26
  4490   001388  5D68               	subwf	??___fladd& (0+255),w,b
  4491   00138A  A0D8               	btfss	status,0,c
  4492   00138C  EFCA  F009         	goto	u4041
  4493   001390  EFCC  F009         	goto	u4040
  4494   001394                     u4041:
  4495   001394  EF03  F00A         	goto	l650
  4496   001398                     u4040:
  4497   001398                     
  4498                           ; BSR set to: 0
  4499   001398  5160               	movf	___fladd@b& (0+255),w,b
  4500   00139A  1161               	iorwf	(___fladd@b+1)& (0+255),w,b
  4501   00139C  1162               	iorwf	(___fladd@b+2)& (0+255),w,b
  4502   00139E  1163               	iorwf	(___fladd@b+3)& (0+255),w,b
  4503   0013A0  A4D8               	btfss	status,2,c
  4504   0013A2  EFD5  F009         	goto	u4051
  4505   0013A6  EFD8  F009         	goto	u4050
  4506   0013AA                     u4051:
  4507   0013AA  0E01               	movlw	1
  4508   0013AC  EFD9  F009         	goto	u4060
  4509   0013B0                     u4050:
  4510   0013B0  0E00               	movlw	0
  4511   0013B2                     u4060:
  4512   0013B2  6F6F               	movwf	___fladd@grs& (0+255),b
  4513   0013B4                     
  4514                           ; BSR set to: 0
  4515   0013B4  0E00               	movlw	0
  4516   0013B6  6F60               	movwf	___fladd@b& (0+255),b
  4517   0013B8  0E00               	movlw	0
  4518   0013BA  6F61               	movwf	(___fladd@b+1)& (0+255),b
  4519   0013BC  0E00               	movlw	0
  4520   0013BE  6F62               	movwf	(___fladd@b+2)& (0+255),b
  4521   0013C0  0E00               	movlw	0
  4522   0013C2  6F63               	movwf	(___fladd@b+3)& (0+255),b
  4523   0013C4                     
  4524                           ; BSR set to: 0
  4525   0013C4  C06D  F06E         	movff	___fladd@aexp,___fladd@bexp
  4526   0013C8  EF0C  F00A         	goto	l649
  4527   0013CC                     l651:
  4528                           
  4529                           ; BSR set to: 0
  4530   0013CC  A16F               	btfss	___fladd@grs& (0+255),0,b
  4531   0013CE  EFEB  F009         	goto	u4071
  4532   0013D2  EFED  F009         	goto	u4070
  4533   0013D6                     u4071:
  4534   0013D6  EFF3  F009         	goto	l3983
  4535   0013DA                     u4070:
  4536   0013DA                     
  4537                           ; BSR set to: 0
  4538   0013DA  90D8               	bcf	status,0,c
  4539   0013DC  316F               	rrcf	___fladd@grs& (0+255),w,b
  4540   0013DE  0901               	iorlw	1
  4541   0013E0  6F6F               	movwf	___fladd@grs& (0+255),b
  4542   0013E2  EFF5  F009         	goto	l3985
  4543   0013E6                     l3983:
  4544                           
  4545                           ; BSR set to: 0
  4546   0013E6  90D8               	bcf	status,0,c
  4547   0013E8  336F               	rrcf	___fladd@grs& (0+255),f,b
  4548   0013EA                     l3985:
  4549                           
  4550                           ; BSR set to: 0
  4551   0013EA  A160               	btfss	___fladd@b& (0+255),0,b
  4552   0013EC  EFFA  F009         	goto	u4081
  4553   0013F0  EFFC  F009         	goto	u4080
  4554   0013F4                     u4081:
  4555   0013F4  EFFD  F009         	goto	l3989
  4556   0013F8                     u4080:
  4557   0013F8                     
  4558                           ; BSR set to: 0
  4559   0013F8  8F6F               	bsf	___fladd@grs& (0+255),7,b
  4560   0013FA                     l3989:
  4561                           
  4562                           ; BSR set to: 0
  4563   0013FA  3563               	rlcf	(___fladd@b+3)& (0+255),w,b
  4564   0013FC  3363               	rrcf	(___fladd@b+3)& (0+255),f,b
  4565   0013FE  3362               	rrcf	(___fladd@b+2)& (0+255),f,b
  4566   001400  3361               	rrcf	(___fladd@b+1)& (0+255),f,b
  4567   001402  3360               	rrcf	___fladd@b& (0+255),f,b
  4568   001404                     
  4569                           ; BSR set to: 0
  4570   001404  2B6E               	incf	___fladd@bexp& (0+255),f,b
  4571   001406                     l650:
  4572                           
  4573                           ; BSR set to: 0
  4574   001406  516D               	movf	___fladd@aexp& (0+255),w,b
  4575   001408  5D6E               	subwf	___fladd@bexp& (0+255),w,b
  4576   00140A  A0D8               	btfss	status,0,c
  4577   00140C  EF0A  F00A         	goto	u4091
  4578   001410  EF0C  F00A         	goto	u4090
  4579   001414                     u4091:
  4580   001414  EFE6  F009         	goto	l651
  4581   001418                     u4090:
  4582   001418                     l649:
  4583                           
  4584                           ; BSR set to: 0
  4585   001418  BD6C               	btfsc	___fladd@signs& (0+255),6,b
  4586   00141A  EF11  F00A         	goto	u4101
  4587   00141E  EF13  F00A         	goto	u4100
  4588   001422                     u4101:
  4589   001422  EF53  F00A         	goto	l4017
  4590   001426                     u4100:
  4591   001426                     
  4592                           ; BSR set to: 0
  4593   001426  516E               	movf	___fladd@bexp& (0+255),w,b
  4594   001428  A4D8               	btfss	status,2,c
  4595   00142A  EF19  F00A         	goto	u4111
  4596   00142E  EF1B  F00A         	goto	u4110
  4597   001432                     u4111:
  4598   001432  EF25  F00A         	goto	l3999
  4599   001436                     u4110:
  4600   001436                     
  4601                           ; BSR set to: 0
  4602   001436  0E00               	movlw	0
  4603   001438  6F60               	movwf	?___fladd& (0+255),b
  4604   00143A  0E00               	movlw	0
  4605   00143C  6F61               	movwf	(?___fladd+1)& (0+255),b
  4606   00143E  0E00               	movlw	0
  4607   001440  6F62               	movwf	(?___fladd+2)& (0+255),b
  4608   001442  0E00               	movlw	0
  4609   001444  6F63               	movwf	(?___fladd+3)& (0+255),b
  4610   001446  EF74  F00B         	goto	l658
  4611   00144A                     l3999:
  4612                           
  4613                           ; BSR set to: 0
  4614   00144A  5164               	movf	___fladd@a& (0+255),w,b
  4615   00144C  2760               	addwf	___fladd@b& (0+255),f,b
  4616   00144E  5165               	movf	(___fladd@a+1)& (0+255),w,b
  4617   001450  2361               	addwfc	(___fladd@b+1)& (0+255),f,b
  4618   001452  5166               	movf	(___fladd@a+2)& (0+255),w,b
  4619   001454  2362               	addwfc	(___fladd@b+2)& (0+255),f,b
  4620   001456  5167               	movf	(___fladd@a+3)& (0+255),w,b
  4621   001458  2363               	addwfc	(___fladd@b+3)& (0+255),f,b
  4622   00145A                     
  4623                           ; BSR set to: 0
  4624   00145A  A163               	btfss	(___fladd@b+3)& (0+255),0,b
  4625   00145C  EF32  F00A         	goto	u4121
  4626   001460  EF34  F00A         	goto	u4120
  4627   001464                     u4121:
  4628   001464  EFE0  F00A         	goto	l4053
  4629   001468                     u4120:
  4630   001468                     
  4631                           ; BSR set to: 0
  4632   001468  A16F               	btfss	___fladd@grs& (0+255),0,b
  4633   00146A  EF39  F00A         	goto	u4131
  4634   00146E  EF3B  F00A         	goto	u4130
  4635   001472                     u4131:
  4636   001472  EF41  F00A         	goto	l4007
  4637   001476                     u4130:
  4638   001476                     
  4639                           ; BSR set to: 0
  4640   001476  90D8               	bcf	status,0,c
  4641   001478  316F               	rrcf	___fladd@grs& (0+255),w,b
  4642   00147A  0901               	iorlw	1
  4643   00147C  6F6F               	movwf	___fladd@grs& (0+255),b
  4644   00147E  EF43  F00A         	goto	l4009
  4645   001482                     l4007:
  4646                           
  4647                           ; BSR set to: 0
  4648   001482  90D8               	bcf	status,0,c
  4649   001484  336F               	rrcf	___fladd@grs& (0+255),f,b
  4650   001486                     l4009:
  4651                           
  4652                           ; BSR set to: 0
  4653   001486  A160               	btfss	___fladd@b& (0+255),0,b
  4654   001488  EF48  F00A         	goto	u4141
  4655   00148C  EF4A  F00A         	goto	u4140
  4656   001490                     u4141:
  4657   001490  EF4B  F00A         	goto	l4013
  4658   001494                     u4140:
  4659   001494                     
  4660                           ; BSR set to: 0
  4661   001494  8F6F               	bsf	___fladd@grs& (0+255),7,b
  4662   001496                     l4013:
  4663                           
  4664                           ; BSR set to: 0
  4665   001496  3563               	rlcf	(___fladd@b+3)& (0+255),w,b
  4666   001498  3363               	rrcf	(___fladd@b+3)& (0+255),f,b
  4667   00149A  3362               	rrcf	(___fladd@b+2)& (0+255),f,b
  4668   00149C  3361               	rrcf	(___fladd@b+1)& (0+255),f,b
  4669   00149E  3360               	rrcf	___fladd@b& (0+255),f,b
  4670   0014A0                     
  4671                           ; BSR set to: 0
  4672   0014A0  2B6E               	incf	___fladd@bexp& (0+255),f,b
  4673   0014A2  EFE0  F00A         	goto	l4053
  4674   0014A6                     l4017:
  4675                           
  4676                           ; BSR set to: 0
  4677   0014A6  5164               	movf	___fladd@a& (0+255),w,b
  4678   0014A8  5D60               	subwf	___fladd@b& (0+255),w,b
  4679   0014AA  5165               	movf	(___fladd@a+1)& (0+255),w,b
  4680   0014AC  5961               	subwfb	(___fladd@b+1)& (0+255),w,b
  4681   0014AE  5166               	movf	(___fladd@a+2)& (0+255),w,b
  4682   0014B0  5962               	subwfb	(___fladd@b+2)& (0+255),w,b
  4683   0014B2  5163               	movf	(___fladd@b+3)& (0+255),w,b
  4684   0014B4  0A80               	xorlw	128
  4685   0014B6  6F68               	movwf	??___fladd& (0+255),b
  4686   0014B8  5167               	movf	(___fladd@a+3)& (0+255),w,b
  4687   0014BA  0A80               	xorlw	128
  4688   0014BC  5968               	subwfb	??___fladd& (0+255),w,b
  4689   0014BE  B0D8               	btfsc	status,0,c
  4690   0014C0  EF64  F00A         	goto	u4151
  4691   0014C4  EF66  F00A         	goto	u4150
  4692   0014C8                     u4151:
  4693   0014C8  EF91  F00A         	goto	l4027
  4694   0014CC                     u4150:
  4695   0014CC                     
  4696                           ; BSR set to: 0
  4697   0014CC  5160               	movf	___fladd@b& (0+255),w,b
  4698   0014CE  5D64               	subwf	___fladd@a& (0+255),w,b
  4699   0014D0  6F68               	movwf	??___fladd& (0+255),b
  4700   0014D2  5161               	movf	(___fladd@b+1)& (0+255),w,b
  4701   0014D4  5965               	subwfb	(___fladd@a+1)& (0+255),w,b
  4702   0014D6  6F69               	movwf	(??___fladd+1)& (0+255),b
  4703   0014D8  5162               	movf	(___fladd@b+2)& (0+255),w,b
  4704   0014DA  5966               	subwfb	(___fladd@a+2)& (0+255),w,b
  4705   0014DC  6F6A               	movwf	(??___fladd+2)& (0+255),b
  4706   0014DE  5163               	movf	(___fladd@b+3)& (0+255),w,b
  4707   0014E0  5967               	subwfb	(___fladd@a+3)& (0+255),w,b
  4708   0014E2  6F6B               	movwf	(??___fladd+3)& (0+255),b
  4709   0014E4  0EFF               	movlw	255
  4710   0014E6  2568               	addwf	??___fladd& (0+255),w,b
  4711   0014E8  6F60               	movwf	___fladd@b& (0+255),b
  4712   0014EA  0EFF               	movlw	255
  4713   0014EC  2169               	addwfc	(??___fladd+1)& (0+255),w,b
  4714   0014EE  6F61               	movwf	(___fladd@b+1)& (0+255),b
  4715   0014F0  0EFF               	movlw	255
  4716   0014F2  216A               	addwfc	(??___fladd+2)& (0+255),w,b
  4717   0014F4  6F62               	movwf	(___fladd@b+2)& (0+255),b
  4718   0014F6  0EFF               	movlw	255
  4719   0014F8  216B               	addwfc	(??___fladd+3)& (0+255),w,b
  4720   0014FA  6F63               	movwf	(___fladd@b+3)& (0+255),b
  4721   0014FC  0E80               	movlw	128
  4722   0014FE  1B6C               	xorwf	___fladd@signs& (0+255),f,b
  4723   001500                     
  4724                           ; BSR set to: 0
  4725   001500  6D6F               	negf	___fladd@grs& (0+255),b
  4726   001502                     
  4727                           ; BSR set to: 0
  4728   001502  516F               	movf	___fladd@grs& (0+255),w,b
  4729   001504  A4D8               	btfss	status,2,c
  4730   001506  EF87  F00A         	goto	u4161
  4731   00150A  EF89  F00A         	goto	u4160
  4732   00150E                     u4161:
  4733   00150E  EF99  F00A         	goto	l666
  4734   001512                     u4160:
  4735   001512                     
  4736                           ; BSR set to: 0
  4737   001512  0E01               	movlw	1
  4738   001514  2760               	addwf	___fladd@b& (0+255),f,b
  4739   001516  0E00               	movlw	0
  4740   001518  2361               	addwfc	(___fladd@b+1)& (0+255),f,b
  4741   00151A  2362               	addwfc	(___fladd@b+2)& (0+255),f,b
  4742   00151C  2363               	addwfc	(___fladd@b+3)& (0+255),f,b
  4743   00151E  EF99  F00A         	goto	l666
  4744   001522                     l4027:
  4745                           
  4746                           ; BSR set to: 0
  4747   001522  5164               	movf	___fladd@a& (0+255),w,b
  4748   001524  5F60               	subwf	___fladd@b& (0+255),f,b
  4749   001526  5165               	movf	(___fladd@a+1)& (0+255),w,b
  4750   001528  5B61               	subwfb	(___fladd@b+1)& (0+255),f,b
  4751   00152A  5166               	movf	(___fladd@a+2)& (0+255),w,b
  4752   00152C  5B62               	subwfb	(___fladd@b+2)& (0+255),f,b
  4753   00152E  5167               	movf	(___fladd@a+3)& (0+255),w,b
  4754   001530  5B63               	subwfb	(___fladd@b+3)& (0+255),f,b
  4755   001532                     l666:
  4756                           
  4757                           ; BSR set to: 0
  4758   001532  5160               	movf	___fladd@b& (0+255),w,b
  4759   001534  1161               	iorwf	(___fladd@b+1)& (0+255),w,b
  4760   001536  1162               	iorwf	(___fladd@b+2)& (0+255),w,b
  4761   001538  1163               	iorwf	(___fladd@b+3)& (0+255),w,b
  4762   00153A  A4D8               	btfss	status,2,c
  4763   00153C  EFA2  F00A         	goto	u4171
  4764   001540  EFA4  F00A         	goto	u4170
  4765   001544                     u4171:
  4766   001544  EFD9  F00A         	goto	l4051
  4767   001548                     u4170:
  4768   001548                     
  4769                           ; BSR set to: 0
  4770   001548  516F               	movf	___fladd@grs& (0+255),w,b
  4771   00154A  A4D8               	btfss	status,2,c
  4772   00154C  EFAA  F00A         	goto	u4181
  4773   001550  EFAC  F00A         	goto	u4180
  4774   001554                     u4181:
  4775   001554  EFD9  F00A         	goto	l4051
  4776   001558                     u4180:
  4777   001558                     
  4778                           ; BSR set to: 0
  4779   001558  0E00               	movlw	0
  4780   00155A  6F60               	movwf	?___fladd& (0+255),b
  4781   00155C  0E00               	movlw	0
  4782   00155E  6F61               	movwf	(?___fladd+1)& (0+255),b
  4783   001560  0E00               	movlw	0
  4784   001562  6F62               	movwf	(?___fladd+2)& (0+255),b
  4785   001564  0E00               	movlw	0
  4786   001566  6F63               	movwf	(?___fladd+3)& (0+255),b
  4787   001568  EF74  F00B         	goto	l658
  4788   00156C                     l4035:
  4789                           
  4790                           ; BSR set to: 0
  4791   00156C  90D8               	bcf	status,0,c
  4792   00156E  3760               	rlcf	___fladd@b& (0+255),f,b
  4793   001570  3761               	rlcf	(___fladd@b+1)& (0+255),f,b
  4794   001572  3762               	rlcf	(___fladd@b+2)& (0+255),f,b
  4795   001574  3763               	rlcf	(___fladd@b+3)& (0+255),f,b
  4796   001576                     
  4797                           ; BSR set to: 0
  4798   001576  AF6F               	btfss	___fladd@grs& (0+255),7,b
  4799   001578  EFC0  F00A         	goto	u4191
  4800   00157C  EFC2  F00A         	goto	u4190
  4801   001580                     u4191:
  4802   001580  EFC3  F00A         	goto	l4041
  4803   001584                     u4190:
  4804   001584                     
  4805                           ; BSR set to: 0
  4806   001584  8160               	bsf	___fladd@b& (0+255),0,b
  4807   001586                     l4041:
  4808                           
  4809                           ; BSR set to: 0
  4810   001586  A16F               	btfss	___fladd@grs& (0+255),0,b
  4811   001588  EFC8  F00A         	goto	u4201
  4812   00158C  EFCA  F00A         	goto	u4200
  4813   001590                     u4201:
  4814   001590  EFCE  F00A         	goto	l4045
  4815   001594                     u4200:
  4816   001594                     
  4817                           ; BSR set to: 0
  4818   001594  80D8               	bsf	status,0,c
  4819   001596  376F               	rlcf	___fladd@grs& (0+255),f,b
  4820   001598  EFD0  F00A         	goto	l4047
  4821   00159C                     l4045:
  4822                           
  4823                           ; BSR set to: 0
  4824   00159C  90D8               	bcf	status,0,c
  4825   00159E  376F               	rlcf	___fladd@grs& (0+255),f,b
  4826   0015A0                     l4047:
  4827                           
  4828                           ; BSR set to: 0
  4829   0015A0  516E               	movf	___fladd@bexp& (0+255),w,b
  4830   0015A2  B4D8               	btfsc	status,2,c
  4831   0015A4  EFD6  F00A         	goto	u4211
  4832   0015A8  EFD8  F00A         	goto	u4210
  4833   0015AC                     u4211:
  4834   0015AC  EFD9  F00A         	goto	l4051
  4835   0015B0                     u4210:
  4836   0015B0                     
  4837                           ; BSR set to: 0
  4838   0015B0  076E               	decf	___fladd@bexp& (0+255),f,b
  4839   0015B2                     l4051:
  4840                           
  4841                           ; BSR set to: 0
  4842   0015B2  AF62               	btfss	(___fladd@b+2)& (0+255),7,b
  4843   0015B4  EFDE  F00A         	goto	u4221
  4844   0015B8  EFE0  F00A         	goto	u4220
  4845   0015BC                     u4221:
  4846   0015BC  EFB6  F00A         	goto	l4035
  4847   0015C0                     u4220:
  4848   0015C0                     l4053:
  4849                           
  4850                           ; BSR set to: 0
  4851   0015C0  0E00               	movlw	0
  4852   0015C2  6F6D               	movwf	___fladd@aexp& (0+255),b
  4853   0015C4                     
  4854                           ; BSR set to: 0
  4855   0015C4  AF6F               	btfss	___fladd@grs& (0+255),7,b
  4856   0015C6  EFE7  F00A         	goto	u4231
  4857   0015CA  EFE9  F00A         	goto	u4230
  4858   0015CE                     u4231:
  4859   0015CE  EF01  F00B         	goto	l675
  4860   0015D2                     u4230:
  4861   0015D2                     
  4862                           ; BSR set to: 0
  4863   0015D2  C06F  F068         	movff	___fladd@grs,??___fladd
  4864   0015D6  0E7F               	movlw	127
  4865   0015D8  1768               	andwf	??___fladd& (0+255),f,b
  4866   0015DA  B4D8               	btfsc	status,2,c
  4867   0015DC  EFF2  F00A         	goto	u4241
  4868   0015E0  EFF4  F00A         	goto	u4240
  4869   0015E4                     u4241:
  4870   0015E4  EFF8  F00A         	goto	l676
  4871   0015E8                     u4240:
  4872   0015E8                     l4059:
  4873                           
  4874                           ; BSR set to: 0
  4875   0015E8  0E01               	movlw	1
  4876   0015EA  6F6D               	movwf	___fladd@aexp& (0+255),b
  4877   0015EC  EF01  F00B         	goto	l675
  4878   0015F0                     l676:
  4879                           
  4880                           ; BSR set to: 0
  4881   0015F0  A160               	btfss	___fladd@b& (0+255),0,b
  4882   0015F2  EFFD  F00A         	goto	u4251
  4883   0015F6  EFFF  F00A         	goto	u4250
  4884   0015FA                     u4251:
  4885   0015FA  EF01  F00B         	goto	l675
  4886   0015FE                     u4250:
  4887   0015FE  EFF4  F00A         	goto	l4059
  4888   001602                     l675:
  4889                           
  4890                           ; BSR set to: 0
  4891   001602  516D               	movf	___fladd@aexp& (0+255),w,b
  4892   001604  B4D8               	btfsc	status,2,c
  4893   001606  EF07  F00B         	goto	u4261
  4894   00160A  EF09  F00B         	goto	u4260
  4895   00160E                     u4261:
  4896   00160E  EF34  F00B         	goto	l4071
  4897   001612                     u4260:
  4898   001612                     
  4899                           ; BSR set to: 0
  4900   001612  0E01               	movlw	1
  4901   001614  2760               	addwf	___fladd@b& (0+255),f,b
  4902   001616  0E00               	movlw	0
  4903   001618  2361               	addwfc	(___fladd@b+1)& (0+255),f,b
  4904   00161A  2362               	addwfc	(___fladd@b+2)& (0+255),f,b
  4905   00161C  2363               	addwfc	(___fladd@b+3)& (0+255),f,b
  4906   00161E                     
  4907                           ; BSR set to: 0
  4908   00161E  A163               	btfss	(___fladd@b+3)& (0+255),0,b
  4909   001620  EF14  F00B         	goto	u4271
  4910   001624  EF16  F00B         	goto	u4270
  4911   001628                     u4271:
  4912   001628  EF34  F00B         	goto	l4071
  4913   00162C                     u4270:
  4914   00162C                     
  4915                           ; BSR set to: 0
  4916   00162C  C060  F068         	movff	___fladd@b,??___fladd
  4917   001630  C061  F069         	movff	___fladd@b+1,??___fladd+1
  4918   001634  C062  F06A         	movff	___fladd@b+2,??___fladd+2
  4919   001638  C063  F06B         	movff	___fladd@b+3,??___fladd+3
  4920   00163C  356B               	rlcf	(??___fladd+3)& (0+255),w,b
  4921   00163E  336B               	rrcf	(??___fladd+3)& (0+255),f,b
  4922   001640  336A               	rrcf	(??___fladd+2)& (0+255),f,b
  4923   001642  3369               	rrcf	(??___fladd+1)& (0+255),f,b
  4924   001644  3368               	rrcf	??___fladd& (0+255),f,b
  4925   001646  C068  F060         	movff	??___fladd,___fladd@b
  4926   00164A  C069  F061         	movff	??___fladd+1,___fladd@b+1
  4927   00164E  C06A  F062         	movff	??___fladd+2,___fladd@b+2
  4928   001652  C06B  F063         	movff	??___fladd+3,___fladd@b+3
  4929   001656  296E               	incf	___fladd@bexp& (0+255),w,b
  4930   001658  B4D8               	btfsc	status,2,c
  4931   00165A  EF31  F00B         	goto	u4281
  4932   00165E  EF33  F00B         	goto	u4280
  4933   001662                     u4281:
  4934   001662  EF34  F00B         	goto	l4071
  4935   001666                     u4280:
  4936   001666                     
  4937                           ; BSR set to: 0
  4938   001666  2B6E               	incf	___fladd@bexp& (0+255),f,b
  4939   001668                     l4071:
  4940                           
  4941                           ; BSR set to: 0
  4942   001668  296E               	incf	___fladd@bexp& (0+255),w,b
  4943   00166A  B4D8               	btfsc	status,2,c
  4944   00166C  EF3A  F00B         	goto	u4291
  4945   001670  EF3C  F00B         	goto	u4290
  4946   001674                     u4291:
  4947   001674  EF44  F00B         	goto	l4075
  4948   001678                     u4290:
  4949   001678                     
  4950                           ; BSR set to: 0
  4951   001678  516E               	movf	___fladd@bexp& (0+255),w,b
  4952   00167A  A4D8               	btfss	status,2,c
  4953   00167C  EF42  F00B         	goto	u4301
  4954   001680  EF44  F00B         	goto	u4300
  4955   001684                     u4301:
  4956   001684  EF56  F00B         	goto	l4079
  4957   001688                     u4300:
  4958   001688                     l4075:
  4959                           
  4960                           ; BSR set to: 0
  4961   001688  0E00               	movlw	0
  4962   00168A  6F60               	movwf	___fladd@b& (0+255),b
  4963   00168C  0E00               	movlw	0
  4964   00168E  6F61               	movwf	(___fladd@b+1)& (0+255),b
  4965   001690  0E00               	movlw	0
  4966   001692  6F62               	movwf	(___fladd@b+2)& (0+255),b
  4967   001694  0E00               	movlw	0
  4968   001696  6F63               	movwf	(___fladd@b+3)& (0+255),b
  4969   001698  516E               	movf	___fladd@bexp& (0+255),w,b
  4970   00169A  A4D8               	btfss	status,2,c
  4971   00169C  EF52  F00B         	goto	u4311
  4972   0016A0  EF54  F00B         	goto	u4310
  4973   0016A4                     u4311:
  4974   0016A4  EF56  F00B         	goto	l4079
  4975   0016A8                     u4310:
  4976   0016A8                     
  4977                           ; BSR set to: 0
  4978   0016A8  0E00               	movlw	0
  4979   0016AA  6F6C               	movwf	___fladd@signs& (0+255),b
  4980   0016AC                     l4079:
  4981                           
  4982                           ; BSR set to: 0
  4983   0016AC  A16E               	btfss	___fladd@bexp& (0+255),0,b
  4984   0016AE  EF5B  F00B         	goto	u4321
  4985   0016B2  EF5D  F00B         	goto	u4320
  4986   0016B6                     u4321:
  4987   0016B6  EF60  F00B         	goto	l4083
  4988   0016BA                     u4320:
  4989   0016BA                     
  4990                           ; BSR set to: 0
  4991   0016BA  8F62               	bsf	(___fladd@b+2)& (0+255),7,b
  4992   0016BC  EF61  F00B         	goto	l4085
  4993   0016C0                     l4083:
  4994                           
  4995                           ; BSR set to: 0
  4996   0016C0  9F62               	bcf	(___fladd@b+2)& (0+255),7,b
  4997   0016C2                     l4085:
  4998                           
  4999                           ; BSR set to: 0
  5000   0016C2  90D8               	bcf	status,0,c
  5001   0016C4  316E               	rrcf	___fladd@bexp& (0+255),w,b
  5002   0016C6  6F63               	movwf	(___fladd@b+3)& (0+255),b
  5003   0016C8                     
  5004                           ; BSR set to: 0
  5005   0016C8  AF6C               	btfss	___fladd@signs& (0+255),7,b
  5006   0016CA  EF69  F00B         	goto	u4331
  5007   0016CE  EF6B  F00B         	goto	u4330
  5008   0016D2                     u4331:
  5009   0016D2  EF6C  F00B         	goto	l4091
  5010   0016D6                     u4330:
  5011   0016D6                     
  5012                           ; BSR set to: 0
  5013   0016D6  8F63               	bsf	(___fladd@b+3)& (0+255),7,b
  5014   0016D8                     l4091:
  5015                           
  5016                           ; BSR set to: 0
  5017   0016D8  C060  F060         	movff	___fladd@b,?___fladd
  5018   0016DC  C061  F061         	movff	___fladd@b+1,?___fladd+1
  5019   0016E0  C062  F062         	movff	___fladd@b+2,?___fladd+2
  5020   0016E4  C063  F063         	movff	___fladd@b+3,?___fladd+3
  5021   0016E8                     l658:
  5022                           
  5023                           ; BSR set to: 0
  5024   0016E8  0012               	return		;funcret
  5025   0016EA                     __end_of___fladd:
  5026                           	callstack 0
  5027                           
  5028 ;; *************** function ___flneg *****************
  5029 ;; Defined at:
  5030 ;;		line 15 in file "C:\Program Files\Microchip\xc8\v2.40\pic\sources\c99\common\flneg.c"
  5031 ;; Parameters:    Size  Location     Type
  5032 ;;  f1              4    0[BANK0 ] unsigned char 
  5033 ;; Auto vars:     Size  Location     Type
  5034 ;;		None
  5035 ;; Return value:  Size  Location     Type
  5036 ;;                  4    0[BANK0 ] unsigned char 
  5037 ;; Registers used:
  5038 ;;		wreg, status,2, status,0
  5039 ;; Tracked objects:
  5040 ;;		On entry : 0/0
  5041 ;;		On exit  : 0/0
  5042 ;;		Unchanged: 0/0
  5043 ;; Data sizes:     COMRAM   BANK0   BANK1   BANK2   BANK3   BANK4   BANK5   BANK6   BANK7
  5044 ;;      Params:         0       4       0       0       0       0       0       0       0
  5045 ;;      Locals:         0       0       0       0       0       0       0       0       0
  5046 ;;      Temps:          0       0       0       0       0       0       0       0       0
  5047 ;;      Totals:         0       4       0       0       0       0       0       0       0
  5048 ;;Total ram usage:        4 bytes
  5049 ;; Hardware stack levels used: 1
  5050 ;; Hardware stack levels required when called: 2
  5051 ;; This function calls:
  5052 ;;		Nothing
  5053 ;; This function is called by:
  5054 ;;		_efgtoa
  5055 ;; This function uses a non-reentrant model
  5056 ;;
  5057                           
  5058                           	psect	text18
  5059   00340A                     __ptext18:
  5060                           	callstack 0
  5061   00340A                     ___flneg:
  5062                           	callstack 24
  5063   00340A  0100               	movlb	0	; () banked
  5064   00340C  5160               	movf	___flneg@f1& (0+255),w,b
  5065   00340E  1161               	iorwf	(___flneg@f1+1)& (0+255),w,b
  5066   003410  1162               	iorwf	(___flneg@f1+2)& (0+255),w,b
  5067   003412  1163               	iorwf	(___flneg@f1+3)& (0+255),w,b
  5068   003414  B4D8               	btfsc	status,2,c
  5069   003416  EF0F  F01A         	goto	u4801
  5070   00341A  EF11  F01A         	goto	u4800
  5071   00341E                     u4801:
  5072   00341E  EF19  F01A         	goto	l4397
  5073   003422                     u4800:
  5074   003422                     
  5075                           ; BSR set to: 0
  5076   003422  0E00               	movlw	0
  5077   003424  1B60               	xorwf	___flneg@f1& (0+255),f,b
  5078   003426  0E00               	movlw	0
  5079   003428  1B61               	xorwf	(___flneg@f1+1)& (0+255),f,b
  5080   00342A  0E00               	movlw	0
  5081   00342C  1B62               	xorwf	(___flneg@f1+2)& (0+255),f,b
  5082   00342E  0E80               	movlw	128
  5083   003430  1B63               	xorwf	(___flneg@f1+3)& (0+255),f,b
  5084   003432                     l4397:
  5085                           
  5086                           ; BSR set to: 0
  5087   003432  C060  F060         	movff	___flneg@f1,?___flneg
  5088   003436  C061  F061         	movff	___flneg@f1+1,?___flneg+1
  5089   00343A  C062  F062         	movff	___flneg@f1+2,?___flneg+2
  5090   00343E  C063  F063         	movff	___flneg@f1+3,?___flneg+3
  5091   003442                     
  5092                           ; BSR set to: 0
  5093   003442  0012               	return		;funcret
  5094   003444                     __end_of___flneg:
  5095                           	callstack 0
  5096                           
  5097 ;; *************** function ___flmul *****************
  5098 ;; Defined at:
  5099 ;;		line 8 in file "C:\Program Files\Microchip\xc8\v2.40\pic\sources\c99\common\sprcmul.c"
  5100 ;; Parameters:    Size  Location     Type
  5101 ;;  b               4    0[BANK0 ] unsigned char 
  5102 ;;  a               4    4[BANK0 ] unsigned char 
  5103 ;; Auto vars:     Size  Location     Type
  5104 ;;  prod            4   19[BANK0 ] struct .
  5105 ;;  grs             4   14[BANK0 ] unsigned long 
  5106 ;;  temp            2   23[BANK0 ] struct .
  5107 ;;  bexp            1   18[BANK0 ] unsigned char 
  5108 ;;  aexp            1   13[BANK0 ] unsigned char 
  5109 ;;  sign            1   12[BANK0 ] unsigned char 
  5110 ;; Return value:  Size  Location     Type
  5111 ;;                  4    0[BANK0 ] unsigned char 
  5112 ;; Registers used:
  5113 ;;		wreg, status,2, status,0, prodl, prodh
  5114 ;; Tracked objects:
  5115 ;;		On entry : 0/0
  5116 ;;		On exit  : 0/0
  5117 ;;		Unchanged: 0/0
  5118 ;; Data sizes:     COMRAM   BANK0   BANK1   BANK2   BANK3   BANK4   BANK5   BANK6   BANK7
  5119 ;;      Params:         0       8       0       0       0       0       0       0       0
  5120 ;;      Locals:         0      13       0       0       0       0       0       0       0
  5121 ;;      Temps:          0       4       0       0       0       0       0       0       0
  5122 ;;      Totals:         0      25       0       0       0       0       0       0       0
  5123 ;;Total ram usage:       25 bytes
  5124 ;; Hardware stack levels used: 1
  5125 ;; Hardware stack levels required when called: 2
  5126 ;; This function calls:
  5127 ;;		Nothing
  5128 ;; This function is called by:
  5129 ;;		_efgtoa
  5130 ;; This function uses a non-reentrant model
  5131 ;;
  5132                           
  5133                           	psect	text19
  5134   0016EA                     __ptext19:
  5135                           	callstack 0
  5136   0016EA                     ___flmul:
  5137                           	callstack 24
  5138   0016EA  0100               	movlb	0	; () banked
  5139   0016EC  5163               	movf	(___flmul@b+3)& (0+255),w,b
  5140   0016EE  0B80               	andlw	128
  5141   0016F0  6F6C               	movwf	___flmul@sign& (0+255),b
  5142   0016F2  5163               	movf	(___flmul@b+3)& (0+255),w,b
  5143   0016F4  2563               	addwf	(___flmul@b+3)& (0+255),w,b
  5144   0016F6  6F72               	movwf	___flmul@bexp& (0+255),b
  5145   0016F8                     
  5146                           ; BSR set to: 0
  5147   0016F8  AF62               	btfss	(___flmul@b+2)& (0+255),7,b
  5148   0016FA  EF81  F00B         	goto	u4581
  5149   0016FE  EF83  F00B         	goto	u4580
  5150   001702                     u4581:
  5151   001702  EF84  F00B         	goto	l4247
  5152   001706                     u4580:
  5153   001706                     
  5154                           ; BSR set to: 0
  5155   001706  8172               	bsf	___flmul@bexp& (0+255),0,b
  5156   001708                     l4247:
  5157                           
  5158                           ; BSR set to: 0
  5159   001708  5172               	movf	___flmul@bexp& (0+255),w,b
  5160   00170A  B4D8               	btfsc	status,2,c
  5161   00170C  EF8A  F00B         	goto	u4591
  5162   001710  EF8C  F00B         	goto	u4590
  5163   001714                     u4591:
  5164   001714  EF9F  F00B         	goto	l4255
  5165   001718                     u4590:
  5166   001718                     
  5167                           ; BSR set to: 0
  5168   001718  2972               	incf	___flmul@bexp& (0+255),w,b
  5169   00171A  A4D8               	btfss	status,2,c
  5170   00171C  EF92  F00B         	goto	u4601
  5171   001720  EF94  F00B         	goto	u4600
  5172   001724                     u4601:
  5173   001724  EF9C  F00B         	goto	l4253
  5174   001728                     u4600:
  5175   001728                     
  5176                           ; BSR set to: 0
  5177   001728  0E00               	movlw	0
  5178   00172A  6F60               	movwf	___flmul@b& (0+255),b
  5179   00172C  0E00               	movlw	0
  5180   00172E  6F61               	movwf	(___flmul@b+1)& (0+255),b
  5181   001730  0E00               	movlw	0
  5182   001732  6F62               	movwf	(___flmul@b+2)& (0+255),b
  5183   001734  0E00               	movlw	0
  5184   001736  6F63               	movwf	(___flmul@b+3)& (0+255),b
  5185   001738                     l4253:
  5186                           
  5187                           ; BSR set to: 0
  5188   001738  8F62               	bsf	(___flmul@b+2)& (0+255),7,b
  5189   00173A  EFA7  F00B         	goto	l4257
  5190   00173E                     l4255:
  5191                           
  5192                           ; BSR set to: 0
  5193   00173E  0E00               	movlw	0
  5194   001740  6F60               	movwf	___flmul@b& (0+255),b
  5195   001742  0E00               	movlw	0
  5196   001744  6F61               	movwf	(___flmul@b+1)& (0+255),b
  5197   001746  0E00               	movlw	0
  5198   001748  6F62               	movwf	(___flmul@b+2)& (0+255),b
  5199   00174A  0E00               	movlw	0
  5200   00174C  6F63               	movwf	(___flmul@b+3)& (0+255),b
  5201   00174E                     l4257:
  5202                           
  5203                           ; BSR set to: 0
  5204   00174E  5167               	movf	(___flmul@a+3)& (0+255),w,b
  5205   001750  0B80               	andlw	128
  5206   001752  1B6C               	xorwf	___flmul@sign& (0+255),f,b
  5207   001754                     
  5208                           ; BSR set to: 0
  5209   001754  5167               	movf	(___flmul@a+3)& (0+255),w,b
  5210   001756  2567               	addwf	(___flmul@a+3)& (0+255),w,b
  5211   001758  6F6D               	movwf	___flmul@aexp& (0+255),b
  5212   00175A                     
  5213                           ; BSR set to: 0
  5214   00175A  AF66               	btfss	(___flmul@a+2)& (0+255),7,b
  5215   00175C  EFB2  F00B         	goto	u4611
  5216   001760  EFB4  F00B         	goto	u4610
  5217   001764                     u4611:
  5218   001764  EFB5  F00B         	goto	l4265
  5219   001768                     u4610:
  5220   001768                     
  5221                           ; BSR set to: 0
  5222   001768  816D               	bsf	___flmul@aexp& (0+255),0,b
  5223   00176A                     l4265:
  5224                           
  5225                           ; BSR set to: 0
  5226   00176A  516D               	movf	___flmul@aexp& (0+255),w,b
  5227   00176C  B4D8               	btfsc	status,2,c
  5228   00176E  EFBB  F00B         	goto	u4621
  5229   001772  EFBD  F00B         	goto	u4620
  5230   001776                     u4621:
  5231   001776  EFD0  F00B         	goto	l4273
  5232   00177A                     u4620:
  5233   00177A                     
  5234                           ; BSR set to: 0
  5235   00177A  296D               	incf	___flmul@aexp& (0+255),w,b
  5236   00177C  A4D8               	btfss	status,2,c
  5237   00177E  EFC3  F00B         	goto	u4631
  5238   001782  EFC5  F00B         	goto	u4630
  5239   001786                     u4631:
  5240   001786  EFCD  F00B         	goto	l4271
  5241   00178A                     u4630:
  5242   00178A                     
  5243                           ; BSR set to: 0
  5244   00178A  0E00               	movlw	0
  5245   00178C  6F64               	movwf	___flmul@a& (0+255),b
  5246   00178E  0E00               	movlw	0
  5247   001790  6F65               	movwf	(___flmul@a+1)& (0+255),b
  5248   001792  0E00               	movlw	0
  5249   001794  6F66               	movwf	(___flmul@a+2)& (0+255),b
  5250   001796  0E00               	movlw	0
  5251   001798  6F67               	movwf	(___flmul@a+3)& (0+255),b
  5252   00179A                     l4271:
  5253                           
  5254                           ; BSR set to: 0
  5255   00179A  8F66               	bsf	(___flmul@a+2)& (0+255),7,b
  5256   00179C  EFD8  F00B         	goto	l735
  5257   0017A0                     l4273:
  5258                           
  5259                           ; BSR set to: 0
  5260   0017A0  0E00               	movlw	0
  5261   0017A2  6F64               	movwf	___flmul@a& (0+255),b
  5262   0017A4  0E00               	movlw	0
  5263   0017A6  6F65               	movwf	(___flmul@a+1)& (0+255),b
  5264   0017A8  0E00               	movlw	0
  5265   0017AA  6F66               	movwf	(___flmul@a+2)& (0+255),b
  5266   0017AC  0E00               	movlw	0
  5267   0017AE  6F67               	movwf	(___flmul@a+3)& (0+255),b
  5268   0017B0                     l735:
  5269                           
  5270                           ; BSR set to: 0
  5271   0017B0  516D               	movf	___flmul@aexp& (0+255),w,b
  5272   0017B2  B4D8               	btfsc	status,2,c
  5273   0017B4  EFDE  F00B         	goto	u4641
  5274   0017B8  EFE0  F00B         	goto	u4640
  5275   0017BC                     u4641:
  5276   0017BC  EFE8  F00B         	goto	l4277
  5277   0017C0                     u4640:
  5278   0017C0                     
  5279                           ; BSR set to: 0
  5280   0017C0  5172               	movf	___flmul@bexp& (0+255),w,b
  5281   0017C2  A4D8               	btfss	status,2,c
  5282   0017C4  EFE6  F00B         	goto	u4651
  5283   0017C8  EFE8  F00B         	goto	u4650
  5284   0017CC                     u4651:
  5285   0017CC  EFF2  F00B         	goto	l4281
  5286   0017D0                     u4650:
  5287   0017D0                     l4277:
  5288                           
  5289                           ; BSR set to: 0
  5290   0017D0  0E00               	movlw	0
  5291   0017D2  6F60               	movwf	?___flmul& (0+255),b
  5292   0017D4  0E00               	movlw	0
  5293   0017D6  6F61               	movwf	(?___flmul+1)& (0+255),b
  5294   0017D8  0E00               	movlw	0
  5295   0017DA  6F62               	movwf	(?___flmul+2)& (0+255),b
  5296   0017DC  0E00               	movlw	0
  5297   0017DE  6F63               	movwf	(?___flmul+3)& (0+255),b
  5298   0017E0  EF8A  F00D         	goto	l739
  5299   0017E4                     l4281:
  5300                           
  5301                           ; BSR set to: 0
  5302   0017E4  5166               	movf	(___flmul@a+2)& (0+255),w,b
  5303   0017E6  0360               	mulwf	___flmul@b& (0+255),b
  5304   0017E8  CFF3 F077          	movff	prodl,___flmul@temp
  5305   0017EC  CFF4 F078          	movff	prodh,___flmul@temp+1
  5306   0017F0                     
  5307                           ; BSR set to: 0
  5308   0017F0  5177               	movf	___flmul@temp& (0+255),w,b
  5309   0017F2  6F6E               	movwf	___flmul@grs& (0+255),b
  5310   0017F4  6B6F               	clrf	(___flmul@grs+1)& (0+255),b
  5311   0017F6  6B70               	clrf	(___flmul@grs+2)& (0+255),b
  5312   0017F8  6B71               	clrf	(___flmul@grs+3)& (0+255),b
  5313   0017FA                     
  5314                           ; BSR set to: 0
  5315   0017FA  5178               	movf	(___flmul@temp+1)& (0+255),w,b
  5316   0017FC  6F73               	movwf	___flmul@prod& (0+255),b
  5317   0017FE  6B74               	clrf	(___flmul@prod+1)& (0+255),b
  5318   001800  6B75               	clrf	(___flmul@prod+2)& (0+255),b
  5319   001802  6B76               	clrf	(___flmul@prod+3)& (0+255),b
  5320   001804  5165               	movf	(___flmul@a+1)& (0+255),w,b
  5321   001806  0361               	mulwf	(___flmul@b+1)& (0+255),b
  5322   001808  CFF3 F077          	movff	prodl,___flmul@temp
  5323   00180C  CFF4 F078          	movff	prodh,___flmul@temp+1
  5324   001810                     
  5325                           ; BSR set to: 0
  5326   001810  5177               	movf	___flmul@temp& (0+255),w,b
  5327   001812  276E               	addwf	___flmul@grs& (0+255),f,b
  5328   001814  0E00               	movlw	0
  5329   001816  236F               	addwfc	(___flmul@grs+1)& (0+255),f,b
  5330   001818  2370               	addwfc	(___flmul@grs+2)& (0+255),f,b
  5331   00181A  2371               	addwfc	(___flmul@grs+3)& (0+255),f,b
  5332   00181C                     
  5333                           ; BSR set to: 0
  5334   00181C  5178               	movf	(___flmul@temp+1)& (0+255),w,b
  5335   00181E  2773               	addwf	___flmul@prod& (0+255),f,b
  5336   001820  0E00               	movlw	0
  5337   001822  2374               	addwfc	(___flmul@prod+1)& (0+255),f,b
  5338   001824  2375               	addwfc	(___flmul@prod+2)& (0+255),f,b
  5339   001826  2376               	addwfc	(___flmul@prod+3)& (0+255),f,b
  5340   001828  5164               	movf	___flmul@a& (0+255),w,b
  5341   00182A  0362               	mulwf	(___flmul@b+2)& (0+255),b
  5342   00182C  CFF3 F077          	movff	prodl,___flmul@temp
  5343   001830  CFF4 F078          	movff	prodh,___flmul@temp+1
  5344   001834                     
  5345                           ; BSR set to: 0
  5346   001834  5177               	movf	___flmul@temp& (0+255),w,b
  5347   001836  276E               	addwf	___flmul@grs& (0+255),f,b
  5348   001838  0E00               	movlw	0
  5349   00183A  236F               	addwfc	(___flmul@grs+1)& (0+255),f,b
  5350   00183C  2370               	addwfc	(___flmul@grs+2)& (0+255),f,b
  5351   00183E  2371               	addwfc	(___flmul@grs+3)& (0+255),f,b
  5352   001840                     
  5353                           ; BSR set to: 0
  5354   001840  5178               	movf	(___flmul@temp+1)& (0+255),w,b
  5355   001842  2773               	addwf	___flmul@prod& (0+255),f,b
  5356   001844  0E00               	movlw	0
  5357   001846  2374               	addwfc	(___flmul@prod+1)& (0+255),f,b
  5358   001848  2375               	addwfc	(___flmul@prod+2)& (0+255),f,b
  5359   00184A  2376               	addwfc	(___flmul@prod+3)& (0+255),f,b
  5360   00184C                     
  5361                           ; BSR set to: 0
  5362   00184C  C070  F071         	movff	___flmul@grs+2,___flmul@grs+3
  5363   001850  C06F  F070         	movff	___flmul@grs+1,___flmul@grs+2
  5364   001854  C06E  F06F         	movff	___flmul@grs,___flmul@grs+1
  5365   001858  6B6E               	clrf	___flmul@grs& (0+255),b
  5366   00185A                     
  5367                           ; BSR set to: 0
  5368   00185A  5164               	movf	___flmul@a& (0+255),w,b
  5369   00185C  0361               	mulwf	(___flmul@b+1)& (0+255),b
  5370   00185E  CFF3 F077          	movff	prodl,___flmul@temp
  5371   001862  CFF4 F078          	movff	prodh,___flmul@temp+1
  5372   001866                     
  5373                           ; BSR set to: 0
  5374   001866  5177               	movf	___flmul@temp& (0+255),w,b
  5375   001868  276E               	addwf	___flmul@grs& (0+255),f,b
  5376   00186A  5178               	movf	(___flmul@temp+1)& (0+255),w,b
  5377   00186C  236F               	addwfc	(___flmul@grs+1)& (0+255),f,b
  5378   00186E  0E00               	movlw	0
  5379   001870  2370               	addwfc	(___flmul@grs+2)& (0+255),f,b
  5380   001872  0E00               	movlw	0
  5381   001874  2371               	addwfc	(___flmul@grs+3)& (0+255),f,b
  5382   001876                     
  5383                           ; BSR set to: 0
  5384   001876  5165               	movf	(___flmul@a+1)& (0+255),w,b
  5385   001878  0360               	mulwf	___flmul@b& (0+255),b
  5386   00187A  CFF3 F077          	movff	prodl,___flmul@temp
  5387   00187E  CFF4 F078          	movff	prodh,___flmul@temp+1
  5388   001882                     
  5389                           ; BSR set to: 0
  5390   001882  5177               	movf	___flmul@temp& (0+255),w,b
  5391   001884  276E               	addwf	___flmul@grs& (0+255),f,b
  5392   001886  5178               	movf	(___flmul@temp+1)& (0+255),w,b
  5393   001888  236F               	addwfc	(___flmul@grs+1)& (0+255),f,b
  5394   00188A  0E00               	movlw	0
  5395   00188C  2370               	addwfc	(___flmul@grs+2)& (0+255),f,b
  5396   00188E  0E00               	movlw	0
  5397   001890  2371               	addwfc	(___flmul@grs+3)& (0+255),f,b
  5398   001892                     
  5399                           ; BSR set to: 0
  5400   001892  C070  F071         	movff	___flmul@grs+2,___flmul@grs+3
  5401   001896  C06F  F070         	movff	___flmul@grs+1,___flmul@grs+2
  5402   00189A  C06E  F06F         	movff	___flmul@grs,___flmul@grs+1
  5403   00189E  6B6E               	clrf	___flmul@grs& (0+255),b
  5404   0018A0  5164               	movf	___flmul@a& (0+255),w,b
  5405   0018A2  0360               	mulwf	___flmul@b& (0+255),b
  5406   0018A4  CFF3 F077          	movff	prodl,___flmul@temp
  5407   0018A8  CFF4 F078          	movff	prodh,___flmul@temp+1
  5408   0018AC                     
  5409                           ; BSR set to: 0
  5410   0018AC  5177               	movf	___flmul@temp& (0+255),w,b
  5411   0018AE  276E               	addwf	___flmul@grs& (0+255),f,b
  5412   0018B0  5178               	movf	(___flmul@temp+1)& (0+255),w,b
  5413   0018B2  236F               	addwfc	(___flmul@grs+1)& (0+255),f,b
  5414   0018B4  0E00               	movlw	0
  5415   0018B6  2370               	addwfc	(___flmul@grs+2)& (0+255),f,b
  5416   0018B8  0E00               	movlw	0
  5417   0018BA  2371               	addwfc	(___flmul@grs+3)& (0+255),f,b
  5418   0018BC                     
  5419                           ; BSR set to: 0
  5420   0018BC  5166               	movf	(___flmul@a+2)& (0+255),w,b
  5421   0018BE  0361               	mulwf	(___flmul@b+1)& (0+255),b
  5422   0018C0  CFF3 F077          	movff	prodl,___flmul@temp
  5423   0018C4  CFF4 F078          	movff	prodh,___flmul@temp+1
  5424   0018C8  5177               	movf	___flmul@temp& (0+255),w,b
  5425   0018CA  2773               	addwf	___flmul@prod& (0+255),f,b
  5426   0018CC  5178               	movf	(___flmul@temp+1)& (0+255),w,b
  5427   0018CE  2374               	addwfc	(___flmul@prod+1)& (0+255),f,b
  5428   0018D0  0E00               	movlw	0
  5429   0018D2  2375               	addwfc	(___flmul@prod+2)& (0+255),f,b
  5430   0018D4  0E00               	movlw	0
  5431   0018D6  2376               	addwfc	(___flmul@prod+3)& (0+255),f,b
  5432   0018D8                     
  5433                           ; BSR set to: 0
  5434   0018D8  5165               	movf	(___flmul@a+1)& (0+255),w,b
  5435   0018DA  0362               	mulwf	(___flmul@b+2)& (0+255),b
  5436   0018DC  CFF3 F077          	movff	prodl,___flmul@temp
  5437   0018E0  CFF4 F078          	movff	prodh,___flmul@temp+1
  5438   0018E4                     
  5439                           ; BSR set to: 0
  5440   0018E4  5177               	movf	___flmul@temp& (0+255),w,b
  5441   0018E6  2773               	addwf	___flmul@prod& (0+255),f,b
  5442   0018E8  5178               	movf	(___flmul@temp+1)& (0+255),w,b
  5443   0018EA  2374               	addwfc	(___flmul@prod+1)& (0+255),f,b
  5444   0018EC  0E00               	movlw	0
  5445   0018EE  2375               	addwfc	(___flmul@prod+2)& (0+255),f,b
  5446   0018F0  0E00               	movlw	0
  5447   0018F2  2376               	addwfc	(___flmul@prod+3)& (0+255),f,b
  5448   0018F4  5166               	movf	(___flmul@a+2)& (0+255),w,b
  5449   0018F6  0362               	mulwf	(___flmul@b+2)& (0+255),b
  5450   0018F8  CFF3 F077          	movff	prodl,___flmul@temp
  5451   0018FC  CFF4 F078          	movff	prodh,___flmul@temp+1
  5452   001900                     
  5453                           ; BSR set to: 0
  5454   001900  5177               	movf	___flmul@temp& (0+255),w,b
  5455   001902  6F68               	movwf	??___flmul& (0+255),b
  5456   001904  5178               	movf	(___flmul@temp+1)& (0+255),w,b
  5457   001906  6F69               	movwf	(??___flmul+1)& (0+255),b
  5458   001908  6B6A               	clrf	(??___flmul+2)& (0+255),b
  5459   00190A  6B6B               	clrf	(??___flmul+3)& (0+255),b
  5460   00190C  C06A  F06B         	movff	??___flmul+2,??___flmul+3
  5461   001910  C069  F06A         	movff	??___flmul+1,??___flmul+2
  5462   001914  C068  F069         	movff	??___flmul,??___flmul+1
  5463   001918  6B68               	clrf	??___flmul& (0+255),b
  5464   00191A  5168               	movf	??___flmul& (0+255),w,b
  5465   00191C  2773               	addwf	___flmul@prod& (0+255),f,b
  5466   00191E  5169               	movf	(??___flmul+1)& (0+255),w,b
  5467   001920  2374               	addwfc	(___flmul@prod+1)& (0+255),f,b
  5468   001922  516A               	movf	(??___flmul+2)& (0+255),w,b
  5469   001924  2375               	addwfc	(___flmul@prod+2)& (0+255),f,b
  5470   001926  516B               	movf	(??___flmul+3)& (0+255),w,b
  5471   001928  2376               	addwfc	(___flmul@prod+3)& (0+255),f,b
  5472   00192A                     
  5473                           ; BSR set to: 0
  5474   00192A  C06E  F068         	movff	___flmul@grs,??___flmul
  5475   00192E  C06F  F069         	movff	___flmul@grs+1,??___flmul+1
  5476   001932  C070  F06A         	movff	___flmul@grs+2,??___flmul+2
  5477   001936  C071  F06B         	movff	___flmul@grs+3,??___flmul+3
  5478   00193A  0E19               	movlw	25
  5479   00193C  EFA5  F00C         	goto	u4660
  5480   001940                     u4665:
  5481   001940  90D8               	bcf	status,0,c
  5482   001942  336B               	rrcf	(??___flmul+3)& (0+255),f,b
  5483   001944  336A               	rrcf	(??___flmul+2)& (0+255),f,b
  5484   001946  3369               	rrcf	(??___flmul+1)& (0+255),f,b
  5485   001948  3368               	rrcf	??___flmul& (0+255),f,b
  5486   00194A                     u4660:
  5487   00194A  2EE8               	decfsz	wreg,f,c
  5488   00194C  EFA0  F00C         	goto	u4665
  5489   001950  5168               	movf	??___flmul& (0+255),w,b
  5490   001952  2773               	addwf	___flmul@prod& (0+255),f,b
  5491   001954  5169               	movf	(??___flmul+1)& (0+255),w,b
  5492   001956  2374               	addwfc	(___flmul@prod+1)& (0+255),f,b
  5493   001958  516A               	movf	(??___flmul+2)& (0+255),w,b
  5494   00195A  2375               	addwfc	(___flmul@prod+2)& (0+255),f,b
  5495   00195C  516B               	movf	(??___flmul+3)& (0+255),w,b
  5496   00195E  2376               	addwfc	(___flmul@prod+3)& (0+255),f,b
  5497   001960                     
  5498                           ; BSR set to: 0
  5499   001960  C070  F071         	movff	___flmul@grs+2,___flmul@grs+3
  5500   001964  C06F  F070         	movff	___flmul@grs+1,___flmul@grs+2
  5501   001968  C06E  F06F         	movff	___flmul@grs,___flmul@grs+1
  5502   00196C  6B6E               	clrf	___flmul@grs& (0+255),b
  5503   00196E                     
  5504                           ; BSR set to: 0
  5505   00196E  516D               	movf	___flmul@aexp& (0+255),w,b
  5506   001970  C072  F068         	movff	___flmul@bexp,??___flmul
  5507   001974  6B69               	clrf	(??___flmul+1)& (0+255),b
  5508   001976  2768               	addwf	??___flmul& (0+255),f,b
  5509   001978  0E00               	movlw	0
  5510   00197A  2369               	addwfc	(??___flmul+1)& (0+255),f,b
  5511   00197C  0E82               	movlw	130
  5512   00197E  2568               	addwf	??___flmul& (0+255),w,b
  5513   001980  6F77               	movwf	___flmul@temp& (0+255),b
  5514   001982  0EFF               	movlw	255
  5515   001984  2169               	addwfc	(??___flmul+1)& (0+255),w,b
  5516   001986  6F78               	movwf	(___flmul@temp+1)& (0+255),b
  5517   001988  EFDB  F00C         	goto	l4329
  5518   00198C                     l4323:
  5519                           
  5520                           ; BSR set to: 0
  5521   00198C  90D8               	bcf	status,0,c
  5522   00198E  3773               	rlcf	___flmul@prod& (0+255),f,b
  5523   001990  3774               	rlcf	(___flmul@prod+1)& (0+255),f,b
  5524   001992  3775               	rlcf	(___flmul@prod+2)& (0+255),f,b
  5525   001994  3776               	rlcf	(___flmul@prod+3)& (0+255),f,b
  5526   001996                     
  5527                           ; BSR set to: 0
  5528   001996  AF71               	btfss	(___flmul@grs+3)& (0+255),7,b
  5529   001998  EFD0  F00C         	goto	u4671
  5530   00199C  EFD2  F00C         	goto	u4670
  5531   0019A0                     u4671:
  5532   0019A0  EFD3  F00C         	goto	l742
  5533   0019A4                     u4670:
  5534   0019A4                     
  5535                           ; BSR set to: 0
  5536   0019A4  8173               	bsf	___flmul@prod& (0+255),0,b
  5537   0019A6                     l742:
  5538                           
  5539                           ; BSR set to: 0
  5540   0019A6  90D8               	bcf	status,0,c
  5541   0019A8  376E               	rlcf	___flmul@grs& (0+255),f,b
  5542   0019AA  376F               	rlcf	(___flmul@grs+1)& (0+255),f,b
  5543   0019AC  3770               	rlcf	(___flmul@grs+2)& (0+255),f,b
  5544   0019AE  3771               	rlcf	(___flmul@grs+3)& (0+255),f,b
  5545   0019B0  0777               	decf	___flmul@temp& (0+255),f,b
  5546   0019B2  A0D8               	btfss	status,0,c
  5547   0019B4  0778               	decf	(___flmul@temp+1)& (0+255),f,b
  5548   0019B6                     l4329:
  5549                           
  5550                           ; BSR set to: 0
  5551   0019B6  AF75               	btfss	(___flmul@prod+2)& (0+255),7,b
  5552   0019B8  EFE0  F00C         	goto	u4681
  5553   0019BC  EFE2  F00C         	goto	u4680
  5554   0019C0                     u4681:
  5555   0019C0  EFC6  F00C         	goto	l4323
  5556   0019C4                     u4680:
  5557   0019C4                     
  5558                           ; BSR set to: 0
  5559   0019C4  0E00               	movlw	0
  5560   0019C6  6F6D               	movwf	___flmul@aexp& (0+255),b
  5561   0019C8                     
  5562                           ; BSR set to: 0
  5563   0019C8  AF71               	btfss	(___flmul@grs+3)& (0+255),7,b
  5564   0019CA  EFE9  F00C         	goto	u4691
  5565   0019CE  EFEB  F00C         	goto	u4690
  5566   0019D2                     u4691:
  5567   0019D2  EF0F  F00D         	goto	l744
  5568   0019D6                     u4690:
  5569   0019D6                     
  5570                           ; BSR set to: 0
  5571   0019D6  0EFF               	movlw	255
  5572   0019D8  156E               	andwf	___flmul@grs& (0+255),w,b
  5573   0019DA  6F68               	movwf	??___flmul& (0+255),b
  5574   0019DC  0EFF               	movlw	255
  5575   0019DE  156F               	andwf	(___flmul@grs+1)& (0+255),w,b
  5576   0019E0  6F69               	movwf	(??___flmul+1)& (0+255),b
  5577   0019E2  0EFF               	movlw	255
  5578   0019E4  1570               	andwf	(___flmul@grs+2)& (0+255),w,b
  5579   0019E6  6F6A               	movwf	(??___flmul+2)& (0+255),b
  5580   0019E8  0E7F               	movlw	127
  5581   0019EA  1571               	andwf	(___flmul@grs+3)& (0+255),w,b
  5582   0019EC  6F6B               	movwf	(??___flmul+3)& (0+255),b
  5583   0019EE  5168               	movf	??___flmul& (0+255),w,b
  5584   0019F0  1169               	iorwf	(??___flmul+1)& (0+255),w,b
  5585   0019F2  116A               	iorwf	(??___flmul+2)& (0+255),w,b
  5586   0019F4  116B               	iorwf	(??___flmul+3)& (0+255),w,b
  5587   0019F6  B4D8               	btfsc	status,2,c
  5588   0019F8  EF00  F00D         	goto	u4701
  5589   0019FC  EF02  F00D         	goto	u4700
  5590   001A00                     u4701:
  5591   001A00  EF06  F00D         	goto	l745
  5592   001A04                     u4700:
  5593   001A04                     l4337:
  5594                           
  5595                           ; BSR set to: 0
  5596   001A04  0E01               	movlw	1
  5597   001A06  6F6D               	movwf	___flmul@aexp& (0+255),b
  5598   001A08  EF0F  F00D         	goto	l744
  5599   001A0C                     l745:
  5600                           
  5601                           ; BSR set to: 0
  5602   001A0C  A173               	btfss	___flmul@prod& (0+255),0,b
  5603   001A0E  EF0B  F00D         	goto	u4711
  5604   001A12  EF0D  F00D         	goto	u4710
  5605   001A16                     u4711:
  5606   001A16  EF0F  F00D         	goto	l744
  5607   001A1A                     u4710:
  5608   001A1A  EF02  F00D         	goto	l4337
  5609   001A1E                     l744:
  5610                           
  5611                           ; BSR set to: 0
  5612   001A1E  516D               	movf	___flmul@aexp& (0+255),w,b
  5613   001A20  B4D8               	btfsc	status,2,c
  5614   001A22  EF15  F00D         	goto	u4721
  5615   001A26  EF17  F00D         	goto	u4720
  5616   001A2A                     u4721:
  5617   001A2A  EF3B  F00D         	goto	l4349
  5618   001A2E                     u4720:
  5619   001A2E                     
  5620                           ; BSR set to: 0
  5621   001A2E  0E01               	movlw	1
  5622   001A30  2773               	addwf	___flmul@prod& (0+255),f,b
  5623   001A32  0E00               	movlw	0
  5624   001A34  2374               	addwfc	(___flmul@prod+1)& (0+255),f,b
  5625   001A36  2375               	addwfc	(___flmul@prod+2)& (0+255),f,b
  5626   001A38  2376               	addwfc	(___flmul@prod+3)& (0+255),f,b
  5627   001A3A                     
  5628                           ; BSR set to: 0
  5629   001A3A  A176               	btfss	(___flmul@prod+3)& (0+255),0,b
  5630   001A3C  EF22  F00D         	goto	u4731
  5631   001A40  EF24  F00D         	goto	u4730
  5632   001A44                     u4731:
  5633   001A44  EF3B  F00D         	goto	l4349
  5634   001A48                     u4730:
  5635   001A48                     
  5636                           ; BSR set to: 0
  5637   001A48  C073  F068         	movff	___flmul@prod,??___flmul
  5638   001A4C  C074  F069         	movff	___flmul@prod+1,??___flmul+1
  5639   001A50  C075  F06A         	movff	___flmul@prod+2,??___flmul+2
  5640   001A54  C076  F06B         	movff	___flmul@prod+3,??___flmul+3
  5641   001A58  356B               	rlcf	(??___flmul+3)& (0+255),w,b
  5642   001A5A  336B               	rrcf	(??___flmul+3)& (0+255),f,b
  5643   001A5C  336A               	rrcf	(??___flmul+2)& (0+255),f,b
  5644   001A5E  3369               	rrcf	(??___flmul+1)& (0+255),f,b
  5645   001A60  3368               	rrcf	??___flmul& (0+255),f,b
  5646   001A62  C068  F073         	movff	??___flmul,___flmul@prod
  5647   001A66  C069  F074         	movff	??___flmul+1,___flmul@prod+1
  5648   001A6A  C06A  F075         	movff	??___flmul+2,___flmul@prod+2
  5649   001A6E  C06B  F076         	movff	??___flmul+3,___flmul@prod+3
  5650   001A72                     
  5651                           ; BSR set to: 0
  5652   001A72  4B77               	infsnz	___flmul@temp& (0+255),f,b
  5653   001A74  2B78               	incf	(___flmul@temp+1)& (0+255),f,b
  5654   001A76                     l4349:
  5655                           
  5656                           ; BSR set to: 0
  5657   001A76  BF78               	btfsc	(___flmul@temp+1)& (0+255),7,b
  5658   001A78  EF46  F00D         	goto	u4741
  5659   001A7C  5178               	movf	(___flmul@temp+1)& (0+255),w,b
  5660   001A7E  E108               	bnz	u4740
  5661   001A80  2977               	incf	___flmul@temp& (0+255),w,b
  5662   001A82  A0D8               	btfss	status,0,c
  5663   001A84  EF46  F00D         	goto	u4741
  5664   001A88  EF48  F00D         	goto	u4740
  5665   001A8C                     u4741:
  5666   001A8C  EF52  F00D         	goto	l4353
  5667   001A90                     u4740:
  5668   001A90                     
  5669                           ; BSR set to: 0
  5670   001A90  0E00               	movlw	0
  5671   001A92  6F73               	movwf	___flmul@prod& (0+255),b
  5672   001A94  0E00               	movlw	0
  5673   001A96  6F74               	movwf	(___flmul@prod+1)& (0+255),b
  5674   001A98  0E80               	movlw	128
  5675   001A9A  6F75               	movwf	(___flmul@prod+2)& (0+255),b
  5676   001A9C  0E7F               	movlw	127
  5677   001A9E  6F76               	movwf	(___flmul@prod+3)& (0+255),b
  5678   001AA0  EF80  F00D         	goto	l4365
  5679   001AA4                     l4353:
  5680                           
  5681                           ; BSR set to: 0
  5682   001AA4  BF78               	btfsc	(___flmul@temp+1)& (0+255),7,b
  5683   001AA6  EF5F  F00D         	goto	u4750
  5684   001AAA  5178               	movf	(___flmul@temp+1)& (0+255),w,b
  5685   001AAC  E106               	bnz	u4751
  5686   001AAE  0577               	decf	___flmul@temp& (0+255),w,b
  5687   001AB0  B0D8               	btfsc	status,0,c
  5688   001AB2  EF5D  F00D         	goto	u4751
  5689   001AB6  EF5F  F00D         	goto	u4750
  5690   001ABA                     u4751:
  5691   001ABA  EF6B  F00D         	goto	l752
  5692   001ABE                     u4750:
  5693   001ABE                     
  5694                           ; BSR set to: 0
  5695   001ABE  0E00               	movlw	0
  5696   001AC0  6F73               	movwf	___flmul@prod& (0+255),b
  5697   001AC2  0E00               	movlw	0
  5698   001AC4  6F74               	movwf	(___flmul@prod+1)& (0+255),b
  5699   001AC6  0E00               	movlw	0
  5700   001AC8  6F75               	movwf	(___flmul@prod+2)& (0+255),b
  5701   001ACA  0E00               	movlw	0
  5702   001ACC  6F76               	movwf	(___flmul@prod+3)& (0+255),b
  5703   001ACE  0E00               	movlw	0
  5704   001AD0  6F6C               	movwf	___flmul@sign& (0+255),b
  5705   001AD2  EF80  F00D         	goto	l4365
  5706   001AD6                     l752:
  5707                           
  5708                           ; BSR set to: 0
  5709   001AD6  C077  F072         	movff	___flmul@temp,___flmul@bexp
  5710   001ADA                     
  5711                           ; BSR set to: 0
  5712   001ADA  0EFF               	movlw	255
  5713   001ADC  1773               	andwf	___flmul@prod& (0+255),f,b
  5714   001ADE  0EFF               	movlw	255
  5715   001AE0  1774               	andwf	(___flmul@prod+1)& (0+255),f,b
  5716   001AE2  0E7F               	movlw	127
  5717   001AE4  1775               	andwf	(___flmul@prod+2)& (0+255),f,b
  5718   001AE6  0E00               	movlw	0
  5719   001AE8  1776               	andwf	(___flmul@prod+3)& (0+255),f,b
  5720   001AEA                     
  5721                           ; BSR set to: 0
  5722   001AEA  A172               	btfss	___flmul@bexp& (0+255),0,b
  5723   001AEC  EF7A  F00D         	goto	u4761
  5724   001AF0  EF7C  F00D         	goto	u4760
  5725   001AF4                     u4761:
  5726   001AF4  EF7D  F00D         	goto	l4363
  5727   001AF8                     u4760:
  5728   001AF8                     
  5729                           ; BSR set to: 0
  5730   001AF8  8F75               	bsf	(___flmul@prod+2)& (0+255),7,b
  5731   001AFA                     l4363:
  5732                           
  5733                           ; BSR set to: 0
  5734   001AFA  90D8               	bcf	status,0,c
  5735   001AFC  3172               	rrcf	___flmul@bexp& (0+255),w,b
  5736   001AFE  6F76               	movwf	(___flmul@prod+3)& (0+255),b
  5737   001B00                     l4365:
  5738                           
  5739                           ; BSR set to: 0
  5740   001B00  516C               	movf	___flmul@sign& (0+255),w,b
  5741   001B02  1376               	iorwf	(___flmul@prod+3)& (0+255),f,b
  5742   001B04                     
  5743                           ; BSR set to: 0
  5744   001B04  C073  F060         	movff	___flmul@prod,?___flmul
  5745   001B08  C074  F061         	movff	___flmul@prod+1,?___flmul+1
  5746   001B0C  C075  F062         	movff	___flmul@prod+2,?___flmul+2
  5747   001B10  C076  F063         	movff	___flmul@prod+3,?___flmul+3
  5748   001B14                     l739:
  5749                           
  5750                           ; BSR set to: 0
  5751   001B14  0012               	return		;funcret
  5752   001B16                     __end_of___flmul:
  5753                           	callstack 0
  5754                           
  5755 ;; *************** function ___flge *****************
  5756 ;; Defined at:
  5757 ;;		line 4 in file "C:\Program Files\Microchip\xc8\v2.40\pic\sources\c99\common\flge.c"
  5758 ;; Parameters:    Size  Location     Type
  5759 ;;  ff1             4   25[BANK0 ] unsigned char 
  5760 ;;  ff2             4   29[BANK0 ] unsigned char 
  5761 ;; Auto vars:     Size  Location     Type
  5762 ;;		None
  5763 ;; Return value:  Size  Location     Type
  5764 ;;		None               void
  5765 ;; Registers used:
  5766 ;;		wreg, status,2, status,0
  5767 ;; Tracked objects:
  5768 ;;		On entry : 0/0
  5769 ;;		On exit  : 0/0
  5770 ;;		Unchanged: 0/0
  5771 ;; Data sizes:     COMRAM   BANK0   BANK1   BANK2   BANK3   BANK4   BANK5   BANK6   BANK7
  5772 ;;      Params:         0       8       0       0       0       0       0       0       0
  5773 ;;      Locals:         0       0       0       0       0       0       0       0       0
  5774 ;;      Temps:          0       4       0       0       0       0       0       0       0
  5775 ;;      Totals:         0      12       0       0       0       0       0       0       0
  5776 ;;Total ram usage:       12 bytes
  5777 ;; Hardware stack levels used: 1
  5778 ;; Hardware stack levels required when called: 2
  5779 ;; This function calls:
  5780 ;;		Nothing
  5781 ;; This function is called by:
  5782 ;;		_efgtoa
  5783 ;; This function uses a non-reentrant model
  5784 ;;
  5785                           
  5786                           	psect	text20
  5787   002AFA                     __ptext20:
  5788                           	callstack 0
  5789   002AFA                     ___flge:
  5790                           	callstack 24
  5791   002AFA  0E00               	movlw	0
  5792   002AFC  0100               	movlb	0	; () banked
  5793   002AFE  1579               	andwf	___flge@ff1& (0+255),w,b
  5794   002B00  6F81               	movwf	??___flge& (0+255),b
  5795   002B02  0E00               	movlw	0
  5796   002B04  157A               	andwf	(___flge@ff1+1)& (0+255),w,b
  5797   002B06  6F82               	movwf	(??___flge+1)& (0+255),b
  5798   002B08  0E80               	movlw	128
  5799   002B0A  157B               	andwf	(___flge@ff1+2)& (0+255),w,b
  5800   002B0C  6F83               	movwf	(??___flge+2)& (0+255),b
  5801   002B0E  0E7F               	movlw	127
  5802   002B10  157C               	andwf	(___flge@ff1+3)& (0+255),w,b
  5803   002B12  6F84               	movwf	(??___flge+3)& (0+255),b
  5804   002B14  5181               	movf	??___flge& (0+255),w,b
  5805   002B16  1182               	iorwf	(??___flge+1)& (0+255),w,b
  5806   002B18  1183               	iorwf	(??___flge+2)& (0+255),w,b
  5807   002B1A  1184               	iorwf	(??___flge+3)& (0+255),w,b
  5808   002B1C  A4D8               	btfss	status,2,c
  5809   002B1E  EF93  F015         	goto	u2851
  5810   002B22  EF95  F015         	goto	u2850
  5811   002B26                     u2851:
  5812   002B26  EF9D  F015         	goto	l2947
  5813   002B2A                     u2850:
  5814   002B2A                     
  5815                           ; BSR set to: 0
  5816   002B2A  0E00               	movlw	0
  5817   002B2C  6F79               	movwf	___flge@ff1& (0+255),b
  5818   002B2E  0E00               	movlw	0
  5819   002B30  6F7A               	movwf	(___flge@ff1+1)& (0+255),b
  5820   002B32  0E00               	movlw	0
  5821   002B34  6F7B               	movwf	(___flge@ff1+2)& (0+255),b
  5822   002B36  0E00               	movlw	0
  5823   002B38  6F7C               	movwf	(___flge@ff1+3)& (0+255),b
  5824   002B3A                     l2947:
  5825                           
  5826                           ; BSR set to: 0
  5827   002B3A  0E00               	movlw	0
  5828   002B3C  157D               	andwf	___flge@ff2& (0+255),w,b
  5829   002B3E  6F81               	movwf	??___flge& (0+255),b
  5830   002B40  0E00               	movlw	0
  5831   002B42  157E               	andwf	(___flge@ff2+1)& (0+255),w,b
  5832   002B44  6F82               	movwf	(??___flge+1)& (0+255),b
  5833   002B46  0E80               	movlw	128
  5834   002B48  157F               	andwf	(___flge@ff2+2)& (0+255),w,b
  5835   002B4A  6F83               	movwf	(??___flge+2)& (0+255),b
  5836   002B4C  0E7F               	movlw	127
  5837   002B4E  1580               	andwf	(___flge@ff2+3)& (0+255),w,b
  5838   002B50  6F84               	movwf	(??___flge+3)& (0+255),b
  5839   002B52  5181               	movf	??___flge& (0+255),w,b
  5840   002B54  1182               	iorwf	(??___flge+1)& (0+255),w,b
  5841   002B56  1183               	iorwf	(??___flge+2)& (0+255),w,b
  5842   002B58  1184               	iorwf	(??___flge+3)& (0+255),w,b
  5843   002B5A  A4D8               	btfss	status,2,c
  5844   002B5C  EFB2  F015         	goto	u2861
  5845   002B60  EFB4  F015         	goto	u2860
  5846   002B64                     u2861:
  5847   002B64  EFBC  F015         	goto	l2951
  5848   002B68                     u2860:
  5849   002B68                     
  5850                           ; BSR set to: 0
  5851   002B68  0E00               	movlw	0
  5852   002B6A  6F7D               	movwf	___flge@ff2& (0+255),b
  5853   002B6C  0E00               	movlw	0
  5854   002B6E  6F7E               	movwf	(___flge@ff2+1)& (0+255),b
  5855   002B70  0E00               	movlw	0
  5856   002B72  6F7F               	movwf	(___flge@ff2+2)& (0+255),b
  5857   002B74  0E00               	movlw	0
  5858   002B76  6F80               	movwf	(___flge@ff2+3)& (0+255),b
  5859   002B78                     l2951:
  5860                           
  5861                           ; BSR set to: 0
  5862   002B78  AF7C               	btfss	(___flge@ff1+3)& (0+255),7,b
  5863   002B7A  EFC1  F015         	goto	u2871
  5864   002B7E  EFC3  F015         	goto	u2870
  5865   002B82                     u2871:
  5866   002B82  EFCC  F015         	goto	l2955
  5867   002B86                     u2870:
  5868   002B86                     
  5869                           ; BSR set to: 0
  5870   002B86  6D79               	negf	___flge@ff1& (0+255),b
  5871   002B88  1F7A               	comf	(___flge@ff1+1)& (0+255),f,b
  5872   002B8A  B0D8               	btfsc	status,0,c
  5873   002B8C  2B7A               	incf	(___flge@ff1+1)& (0+255),f,b
  5874   002B8E  1F7B               	comf	(___flge@ff1+2)& (0+255),f,b
  5875   002B90  B0D8               	btfsc	status,0,c
  5876   002B92  2B7B               	incf	(___flge@ff1+2)& (0+255),f,b
  5877   002B94  0E80               	movlw	128
  5878   002B96  577C               	subfwb	(___flge@ff1+3)& (0+255),f,b
  5879   002B98                     l2955:
  5880                           
  5881                           ; BSR set to: 0
  5882   002B98  AF80               	btfss	(___flge@ff2+3)& (0+255),7,b
  5883   002B9A  EFD1  F015         	goto	u2881
  5884   002B9E  EFD3  F015         	goto	u2880
  5885   002BA2                     u2881:
  5886   002BA2  EFDC  F015         	goto	l386
  5887   002BA6                     u2880:
  5888   002BA6                     
  5889                           ; BSR set to: 0
  5890   002BA6  6D7D               	negf	___flge@ff2& (0+255),b
  5891   002BA8  1F7E               	comf	(___flge@ff2+1)& (0+255),f,b
  5892   002BAA  B0D8               	btfsc	status,0,c
  5893   002BAC  2B7E               	incf	(___flge@ff2+1)& (0+255),f,b
  5894   002BAE  1F7F               	comf	(___flge@ff2+2)& (0+255),f,b
  5895   002BB0  B0D8               	btfsc	status,0,c
  5896   002BB2  2B7F               	incf	(___flge@ff2+2)& (0+255),f,b
  5897   002BB4  0E80               	movlw	128
  5898   002BB6  5780               	subfwb	(___flge@ff2+3)& (0+255),f,b
  5899   002BB8                     l386:
  5900                           
  5901                           ; BSR set to: 0
  5902   002BB8  0E00               	movlw	0
  5903   002BBA  1B79               	xorwf	___flge@ff1& (0+255),f,b
  5904   002BBC  0E00               	movlw	0
  5905   002BBE  1B7A               	xorwf	(___flge@ff1+1)& (0+255),f,b
  5906   002BC0  0E00               	movlw	0
  5907   002BC2  1B7B               	xorwf	(___flge@ff1+2)& (0+255),f,b
  5908   002BC4  0E80               	movlw	128
  5909   002BC6  1B7C               	xorwf	(___flge@ff1+3)& (0+255),f,b
  5910   002BC8  0E00               	movlw	0
  5911   002BCA  1B7D               	xorwf	___flge@ff2& (0+255),f,b
  5912   002BCC  0E00               	movlw	0
  5913   002BCE  1B7E               	xorwf	(___flge@ff2+1)& (0+255),f,b
  5914   002BD0  0E00               	movlw	0
  5915   002BD2  1B7F               	xorwf	(___flge@ff2+2)& (0+255),f,b
  5916   002BD4  0E80               	movlw	128
  5917   002BD6  1B80               	xorwf	(___flge@ff2+3)& (0+255),f,b
  5918   002BD8  517D               	movf	___flge@ff2& (0+255),w,b
  5919   002BDA  5D79               	subwf	___flge@ff1& (0+255),w,b
  5920   002BDC  517E               	movf	(___flge@ff2+1)& (0+255),w,b
  5921   002BDE  597A               	subwfb	(___flge@ff1+1)& (0+255),w,b
  5922   002BE0  517F               	movf	(___flge@ff2+2)& (0+255),w,b
  5923   002BE2  597B               	subwfb	(___flge@ff1+2)& (0+255),w,b
  5924   002BE4  5180               	movf	(___flge@ff2+3)& (0+255),w,b
  5925   002BE6  597C               	subwfb	(___flge@ff1+3)& (0+255),w,b
  5926   002BE8  B0D8               	btfsc	status,0,c
  5927   002BEA  EFF9  F015         	goto	u2891
  5928   002BEE  EFFB  F015         	goto	u2890
  5929   002BF2                     u2891:
  5930   002BF2  EFFE  F015         	goto	l2961
  5931   002BF6                     u2890:
  5932   002BF6                     
  5933                           ; BSR set to: 0
  5934   002BF6  90D8               	bcf	status,0,c
  5935   002BF8  EFFF  F015         	goto	l391
  5936   002BFC                     l2961:
  5937                           
  5938                           ; BSR set to: 0
  5939   002BFC  80D8               	bsf	status,0,c
  5940   002BFE                     l391:
  5941                           
  5942                           ; BSR set to: 0
  5943   002BFE  0012               	return		;funcret
  5944   002C00                     __end_of___flge:
  5945                           	callstack 0
  5946                           
  5947 ;; *************** function ___fleq *****************
  5948 ;; Defined at:
  5949 ;;		line 4 in file "C:\Program Files\Microchip\xc8\v2.40\pic\sources\c99\common\fleq.c"
  5950 ;; Parameters:    Size  Location     Type
  5951 ;;  ff1             4    0[BANK0 ] unsigned char 
  5952 ;;  ff2             4    4[BANK0 ] unsigned char 
  5953 ;; Auto vars:     Size  Location     Type
  5954 ;;		None
  5955 ;; Return value:  Size  Location     Type
  5956 ;;		None               void
  5957 ;; Registers used:
  5958 ;;		wreg, status,2, status,0
  5959 ;; Tracked objects:
  5960 ;;		On entry : 0/0
  5961 ;;		On exit  : 0/0
  5962 ;;		Unchanged: 0/0
  5963 ;; Data sizes:     COMRAM   BANK0   BANK1   BANK2   BANK3   BANK4   BANK5   BANK6   BANK7
  5964 ;;      Params:         0       8       0       0       0       0       0       0       0
  5965 ;;      Locals:         0       0       0       0       0       0       0       0       0
  5966 ;;      Temps:          0       4       0       0       0       0       0       0       0
  5967 ;;      Totals:         0      12       0       0       0       0       0       0       0
  5968 ;;Total ram usage:       12 bytes
  5969 ;; Hardware stack levels used: 1
  5970 ;; Hardware stack levels required when called: 2
  5971 ;; This function calls:
  5972 ;;		Nothing
  5973 ;; This function is called by:
  5974 ;;		_efgtoa
  5975 ;; This function uses a non-reentrant model
  5976 ;;
  5977                           
  5978                           	psect	text21
  5979   002E7C                     __ptext21:
  5980                           	callstack 0
  5981   002E7C                     ___fleq:
  5982                           	callstack 24
  5983   002E7C  0E00               	movlw	0
  5984   002E7E  0100               	movlb	0	; () banked
  5985   002E80  1560               	andwf	___fleq@ff1& (0+255),w,b
  5986   002E82  6F68               	movwf	??___fleq& (0+255),b
  5987   002E84  0E00               	movlw	0
  5988   002E86  1561               	andwf	(___fleq@ff1+1)& (0+255),w,b
  5989   002E88  6F69               	movwf	(??___fleq+1)& (0+255),b
  5990   002E8A  0E80               	movlw	128
  5991   002E8C  1562               	andwf	(___fleq@ff1+2)& (0+255),w,b
  5992   002E8E  6F6A               	movwf	(??___fleq+2)& (0+255),b
  5993   002E90  0E7F               	movlw	127
  5994   002E92  1563               	andwf	(___fleq@ff1+3)& (0+255),w,b
  5995   002E94  6F6B               	movwf	(??___fleq+3)& (0+255),b
  5996   002E96  5168               	movf	??___fleq& (0+255),w,b
  5997   002E98  1169               	iorwf	(??___fleq+1)& (0+255),w,b
  5998   002E9A  116A               	iorwf	(??___fleq+2)& (0+255),w,b
  5999   002E9C  116B               	iorwf	(??___fleq+3)& (0+255),w,b
  6000   002E9E  A4D8               	btfss	status,2,c
  6001   002EA0  EF54  F017         	goto	u4771
  6002   002EA4  EF56  F017         	goto	u4770
  6003   002EA8                     u4771:
  6004   002EA8  EF5E  F017         	goto	l4381
  6005   002EAC                     u4770:
  6006   002EAC                     
  6007                           ; BSR set to: 0
  6008   002EAC  0E00               	movlw	0
  6009   002EAE  6F60               	movwf	___fleq@ff1& (0+255),b
  6010   002EB0  0E00               	movlw	0
  6011   002EB2  6F61               	movwf	(___fleq@ff1+1)& (0+255),b
  6012   002EB4  0E00               	movlw	0
  6013   002EB6  6F62               	movwf	(___fleq@ff1+2)& (0+255),b
  6014   002EB8  0E00               	movlw	0
  6015   002EBA  6F63               	movwf	(___fleq@ff1+3)& (0+255),b
  6016   002EBC                     l4381:
  6017                           
  6018                           ; BSR set to: 0
  6019   002EBC  0E00               	movlw	0
  6020   002EBE  1564               	andwf	___fleq@ff2& (0+255),w,b
  6021   002EC0  6F68               	movwf	??___fleq& (0+255),b
  6022   002EC2  0E00               	movlw	0
  6023   002EC4  1565               	andwf	(___fleq@ff2+1)& (0+255),w,b
  6024   002EC6  6F69               	movwf	(??___fleq+1)& (0+255),b
  6025   002EC8  0E80               	movlw	128
  6026   002ECA  1566               	andwf	(___fleq@ff2+2)& (0+255),w,b
  6027   002ECC  6F6A               	movwf	(??___fleq+2)& (0+255),b
  6028   002ECE  0E7F               	movlw	127
  6029   002ED0  1567               	andwf	(___fleq@ff2+3)& (0+255),w,b
  6030   002ED2  6F6B               	movwf	(??___fleq+3)& (0+255),b
  6031   002ED4  5168               	movf	??___fleq& (0+255),w,b
  6032   002ED6  1169               	iorwf	(??___fleq+1)& (0+255),w,b
  6033   002ED8  116A               	iorwf	(??___fleq+2)& (0+255),w,b
  6034   002EDA  116B               	iorwf	(??___fleq+3)& (0+255),w,b
  6035   002EDC  A4D8               	btfss	status,2,c
  6036   002EDE  EF73  F017         	goto	u4781
  6037   002EE2  EF75  F017         	goto	u4780
  6038   002EE6                     u4781:
  6039   002EE6  EF7D  F017         	goto	l4385
  6040   002EEA                     u4780:
  6041   002EEA                     
  6042                           ; BSR set to: 0
  6043   002EEA  0E00               	movlw	0
  6044   002EEC  6F64               	movwf	___fleq@ff2& (0+255),b
  6045   002EEE  0E00               	movlw	0
  6046   002EF0  6F65               	movwf	(___fleq@ff2+1)& (0+255),b
  6047   002EF2  0E00               	movlw	0
  6048   002EF4  6F66               	movwf	(___fleq@ff2+2)& (0+255),b
  6049   002EF6  0E00               	movlw	0
  6050   002EF8  6F67               	movwf	(___fleq@ff2+3)& (0+255),b
  6051   002EFA                     l4385:
  6052                           
  6053                           ; BSR set to: 0
  6054   002EFA  5164               	movf	___fleq@ff2& (0+255),w,b
  6055   002EFC  1960               	xorwf	___fleq@ff1& (0+255),w,b
  6056   002EFE  E10F               	bnz	u4790
  6057   002F00  5165               	movf	(___fleq@ff2+1)& (0+255),w,b
  6058   002F02  1961               	xorwf	(___fleq@ff1+1)& (0+255),w,b
  6059   002F04  E10C               	bnz	u4790
  6060   002F06  5166               	movf	(___fleq@ff2+2)& (0+255),w,b
  6061   002F08  1962               	xorwf	(___fleq@ff1+2)& (0+255),w,b
  6062   002F0A  E109               	bnz	u4790
  6063   002F0C  5167               	movf	(___fleq@ff2+3)& (0+255),w,b
  6064   002F0E  1963               	xorwf	(___fleq@ff1+3)& (0+255),w,b
  6065   002F10  B4D8               	btfsc	status,2,c
  6066   002F12  EF8D  F017         	goto	u4791
  6067   002F16  EF8F  F017         	goto	u4790
  6068   002F1A                     u4791:
  6069   002F1A  EF92  F017         	goto	l4389
  6070   002F1E                     u4790:
  6071   002F1E                     
  6072                           ; BSR set to: 0
  6073   002F1E  90D8               	bcf	status,0,c
  6074   002F20  EF93  F017         	goto	l380
  6075   002F24                     l4389:
  6076                           
  6077                           ; BSR set to: 0
  6078   002F24  80D8               	bsf	status,0,c
  6079   002F26                     l380:
  6080                           
  6081                           ; BSR set to: 0
  6082   002F26  0012               	return		;funcret
  6083   002F28                     __end_of___fleq:
  6084                           	callstack 0
  6085                           
  6086 ;; *************** function ___fldiv *****************
  6087 ;; Defined at:
  6088 ;;		line 11 in file "C:\Program Files\Microchip\xc8\v2.40\pic\sources\c99\common\sprcdiv.c"
  6089 ;; Parameters:    Size  Location     Type
  6090 ;;  b               4    0[BANK0 ] unsigned char 
  6091 ;;  a               4    4[BANK0 ] unsigned char 
  6092 ;; Auto vars:     Size  Location     Type
  6093 ;;  grs             4   19[BANK0 ] unsigned long 
  6094 ;;  rem             4   12[BANK0 ] unsigned long 
  6095 ;;  new_exp         2   17[BANK0 ] short 
  6096 ;;  aexp            1   24[BANK0 ] unsigned char 
  6097 ;;  bexp            1   23[BANK0 ] unsigned char 
  6098 ;;  sign            1   16[BANK0 ] unsigned char 
  6099 ;; Return value:  Size  Location     Type
  6100 ;;                  4    0[BANK0 ] unsigned char 
  6101 ;; Registers used:
  6102 ;;		wreg, status,2, status,0
  6103 ;; Tracked objects:
  6104 ;;		On entry : 0/0
  6105 ;;		On exit  : 0/0
  6106 ;;		Unchanged: 0/0
  6107 ;; Data sizes:     COMRAM   BANK0   BANK1   BANK2   BANK3   BANK4   BANK5   BANK6   BANK7
  6108 ;;      Params:         0       8       0       0       0       0       0       0       0
  6109 ;;      Locals:         0      13       0       0       0       0       0       0       0
  6110 ;;      Temps:          0       4       0       0       0       0       0       0       0
  6111 ;;      Totals:         0      25       0       0       0       0       0       0       0
  6112 ;;Total ram usage:       25 bytes
  6113 ;; Hardware stack levels used: 1
  6114 ;; Hardware stack levels required when called: 2
  6115 ;; This function calls:
  6116 ;;		Nothing
  6117 ;; This function is called by:
  6118 ;;		_efgtoa
  6119 ;; This function uses a non-reentrant model
  6120 ;;
  6121                           
  6122                           	psect	text22
  6123   001F40                     __ptext22:
  6124                           	callstack 0
  6125   001F40                     ___fldiv:
  6126                           	callstack 24
  6127   001F40  0100               	movlb	0	; () banked
  6128   001F42  5163               	movf	(___fldiv@b+3)& (0+255),w,b
  6129   001F44  0B80               	andlw	128
  6130   001F46  6F70               	movwf	___fldiv@sign& (0+255),b
  6131   001F48  5163               	movf	(___fldiv@b+3)& (0+255),w,b
  6132   001F4A  2563               	addwf	(___fldiv@b+3)& (0+255),w,b
  6133   001F4C  6F77               	movwf	___fldiv@bexp& (0+255),b
  6134   001F4E                     
  6135                           ; BSR set to: 0
  6136   001F4E  AF62               	btfss	(___fldiv@b+2)& (0+255),7,b
  6137   001F50  EFAC  F00F         	goto	u4351
  6138   001F54  EFAE  F00F         	goto	u4350
  6139   001F58                     u4351:
  6140   001F58  EFAF  F00F         	goto	l4109
  6141   001F5C                     u4350:
  6142   001F5C                     
  6143                           ; BSR set to: 0
  6144   001F5C  8177               	bsf	___fldiv@bexp& (0+255),0,b
  6145   001F5E                     l4109:
  6146                           
  6147                           ; BSR set to: 0
  6148   001F5E  5177               	movf	___fldiv@bexp& (0+255),w,b
  6149   001F60  B4D8               	btfsc	status,2,c
  6150   001F62  EFB5  F00F         	goto	u4361
  6151   001F66  EFB7  F00F         	goto	u4360
  6152   001F6A                     u4361:
  6153   001F6A  EFCC  F00F         	goto	l4119
  6154   001F6E                     u4360:
  6155   001F6E                     
  6156                           ; BSR set to: 0
  6157   001F6E  2977               	incf	___fldiv@bexp& (0+255),w,b
  6158   001F70  A4D8               	btfss	status,2,c
  6159   001F72  EFBD  F00F         	goto	u4371
  6160   001F76  EFBF  F00F         	goto	u4370
  6161   001F7A                     u4371:
  6162   001F7A  EFC7  F00F         	goto	l4115
  6163   001F7E                     u4370:
  6164   001F7E                     
  6165                           ; BSR set to: 0
  6166   001F7E  0E00               	movlw	0
  6167   001F80  6F60               	movwf	___fldiv@b& (0+255),b
  6168   001F82  0E00               	movlw	0
  6169   001F84  6F61               	movwf	(___fldiv@b+1)& (0+255),b
  6170   001F86  0E00               	movlw	0
  6171   001F88  6F62               	movwf	(___fldiv@b+2)& (0+255),b
  6172   001F8A  0E00               	movlw	0
  6173   001F8C  6F63               	movwf	(___fldiv@b+3)& (0+255),b
  6174   001F8E                     l4115:
  6175                           
  6176                           ; BSR set to: 0
  6177   001F8E  8F62               	bsf	(___fldiv@b+2)& (0+255),7,b
  6178   001F90                     
  6179                           ; BSR set to: 0
  6180   001F90  0E00               	movlw	0
  6181   001F92  6F63               	movwf	(___fldiv@b+3)& (0+255),b
  6182   001F94  EFD4  F00F         	goto	l4121
  6183   001F98                     l4119:
  6184                           
  6185                           ; BSR set to: 0
  6186   001F98  0E00               	movlw	0
  6187   001F9A  6F60               	movwf	___fldiv@b& (0+255),b
  6188   001F9C  0E00               	movlw	0
  6189   001F9E  6F61               	movwf	(___fldiv@b+1)& (0+255),b
  6190   001FA0  0E00               	movlw	0
  6191   001FA2  6F62               	movwf	(___fldiv@b+2)& (0+255),b
  6192   001FA4  0E00               	movlw	0
  6193   001FA6  6F63               	movwf	(___fldiv@b+3)& (0+255),b
  6194   001FA8                     l4121:
  6195                           
  6196                           ; BSR set to: 0
  6197   001FA8  5167               	movf	(___fldiv@a+3)& (0+255),w,b
  6198   001FAA  0B80               	andlw	128
  6199   001FAC  1B70               	xorwf	___fldiv@sign& (0+255),f,b
  6200   001FAE                     
  6201                           ; BSR set to: 0
  6202   001FAE  5167               	movf	(___fldiv@a+3)& (0+255),w,b
  6203   001FB0  2567               	addwf	(___fldiv@a+3)& (0+255),w,b
  6204   001FB2  6F78               	movwf	___fldiv@aexp& (0+255),b
  6205   001FB4                     
  6206                           ; BSR set to: 0
  6207   001FB4  AF66               	btfss	(___fldiv@a+2)& (0+255),7,b
  6208   001FB6  EFDF  F00F         	goto	u4381
  6209   001FBA  EFE1  F00F         	goto	u4380
  6210   001FBE                     u4381:
  6211   001FBE  EFE2  F00F         	goto	l4129
  6212   001FC2                     u4380:
  6213   001FC2                     
  6214                           ; BSR set to: 0
  6215   001FC2  8178               	bsf	___fldiv@aexp& (0+255),0,b
  6216   001FC4                     l4129:
  6217                           
  6218                           ; BSR set to: 0
  6219   001FC4  5178               	movf	___fldiv@aexp& (0+255),w,b
  6220   001FC6  B4D8               	btfsc	status,2,c
  6221   001FC8  EFE8  F00F         	goto	u4391
  6222   001FCC  EFEA  F00F         	goto	u4390
  6223   001FD0                     u4391:
  6224   001FD0  EFFF  F00F         	goto	l4139
  6225   001FD4                     u4390:
  6226   001FD4                     
  6227                           ; BSR set to: 0
  6228   001FD4  2978               	incf	___fldiv@aexp& (0+255),w,b
  6229   001FD6  A4D8               	btfss	status,2,c
  6230   001FD8  EFF0  F00F         	goto	u4401
  6231   001FDC  EFF2  F00F         	goto	u4400
  6232   001FE0                     u4401:
  6233   001FE0  EFFA  F00F         	goto	l4135
  6234   001FE4                     u4400:
  6235   001FE4                     
  6236                           ; BSR set to: 0
  6237   001FE4  0E00               	movlw	0
  6238   001FE6  6F64               	movwf	___fldiv@a& (0+255),b
  6239   001FE8  0E00               	movlw	0
  6240   001FEA  6F65               	movwf	(___fldiv@a+1)& (0+255),b
  6241   001FEC  0E00               	movlw	0
  6242   001FEE  6F66               	movwf	(___fldiv@a+2)& (0+255),b
  6243   001FF0  0E00               	movlw	0
  6244   001FF2  6F67               	movwf	(___fldiv@a+3)& (0+255),b
  6245   001FF4                     l4135:
  6246                           
  6247                           ; BSR set to: 0
  6248   001FF4  8F66               	bsf	(___fldiv@a+2)& (0+255),7,b
  6249   001FF6                     
  6250                           ; BSR set to: 0
  6251   001FF6  0E00               	movlw	0
  6252   001FF8  6F67               	movwf	(___fldiv@a+3)& (0+255),b
  6253   001FFA  EF07  F010         	goto	l4141
  6254   001FFE                     l4139:
  6255                           
  6256                           ; BSR set to: 0
  6257   001FFE  0E00               	movlw	0
  6258   002000  6F64               	movwf	___fldiv@a& (0+255),b
  6259   002002  0E00               	movlw	0
  6260   002004  6F65               	movwf	(___fldiv@a+1)& (0+255),b
  6261   002006  0E00               	movlw	0
  6262   002008  6F66               	movwf	(___fldiv@a+2)& (0+255),b
  6263   00200A  0E00               	movlw	0
  6264   00200C  6F67               	movwf	(___fldiv@a+3)& (0+255),b
  6265   00200E                     l4141:
  6266                           
  6267                           ; BSR set to: 0
  6268   00200E  5164               	movf	___fldiv@a& (0+255),w,b
  6269   002010  1165               	iorwf	(___fldiv@a+1)& (0+255),w,b
  6270   002012  1166               	iorwf	(___fldiv@a+2)& (0+255),w,b
  6271   002014  1167               	iorwf	(___fldiv@a+3)& (0+255),w,b
  6272   002016  A4D8               	btfss	status,2,c
  6273   002018  EF10  F010         	goto	u4411
  6274   00201C  EF12  F010         	goto	u4410
  6275   002020                     u4411:
  6276   002020  EF2A  F010         	goto	l4153
  6277   002024                     u4410:
  6278   002024                     
  6279                           ; BSR set to: 0
  6280   002024  0E00               	movlw	0
  6281   002026  6F60               	movwf	___fldiv@b& (0+255),b
  6282   002028  0E00               	movlw	0
  6283   00202A  6F61               	movwf	(___fldiv@b+1)& (0+255),b
  6284   00202C  0E00               	movlw	0
  6285   00202E  6F62               	movwf	(___fldiv@b+2)& (0+255),b
  6286   002030  0E00               	movlw	0
  6287   002032  6F63               	movwf	(___fldiv@b+3)& (0+255),b
  6288   002034                     
  6289                           ; BSR set to: 0
  6290   002034  0E80               	movlw	128
  6291   002036  1362               	iorwf	(___fldiv@b+2)& (0+255),f,b
  6292   002038  0E7F               	movlw	127
  6293   00203A  1363               	iorwf	(___fldiv@b+3)& (0+255),f,b
  6294   00203C                     l4147:
  6295                           
  6296                           ; BSR set to: 0
  6297   00203C  5170               	movf	___fldiv@sign& (0+255),w,b
  6298   00203E  1363               	iorwf	(___fldiv@b+3)& (0+255),f,b
  6299   002040                     
  6300                           ; BSR set to: 0
  6301   002040  C060  F060         	movff	___fldiv@b,?___fldiv
  6302   002044  C061  F061         	movff	___fldiv@b+1,?___fldiv+1
  6303   002048  C062  F062         	movff	___fldiv@b+2,?___fldiv+2
  6304   00204C  C063  F063         	movff	___fldiv@b+3,?___fldiv+3
  6305   002050  EF6D  F011         	goto	l703
  6306   002054                     l4153:
  6307                           
  6308                           ; BSR set to: 0
  6309   002054  5177               	movf	___fldiv@bexp& (0+255),w,b
  6310   002056  A4D8               	btfss	status,2,c
  6311   002058  EF30  F010         	goto	u4421
  6312   00205C  EF32  F010         	goto	u4420
  6313   002060                     u4421:
  6314   002060  EF3C  F010         	goto	l4161
  6315   002064                     u4420:
  6316   002064                     
  6317                           ; BSR set to: 0
  6318   002064  0E00               	movlw	0
  6319   002066  6F60               	movwf	?___fldiv& (0+255),b
  6320   002068  0E00               	movlw	0
  6321   00206A  6F61               	movwf	(?___fldiv+1)& (0+255),b
  6322   00206C  0E00               	movlw	0
  6323   00206E  6F62               	movwf	(?___fldiv+2)& (0+255),b
  6324   002070  0E00               	movlw	0
  6325   002072  6F63               	movwf	(?___fldiv+3)& (0+255),b
  6326   002074  EF6D  F011         	goto	l703
  6327   002078                     l4161:
  6328                           
  6329                           ; BSR set to: 0
  6330   002078  5178               	movf	___fldiv@aexp& (0+255),w,b
  6331   00207A  C077  F068         	movff	___fldiv@bexp,??___fldiv
  6332   00207E  6B69               	clrf	(??___fldiv+1)& (0+255),b
  6333   002080  5F68               	subwf	??___fldiv& (0+255),f,b
  6334   002082  0E00               	movlw	0
  6335   002084  5B69               	subwfb	(??___fldiv+1)& (0+255),f,b
  6336   002086  0E7F               	movlw	127
  6337   002088  2568               	addwf	??___fldiv& (0+255),w,b
  6338   00208A  6F71               	movwf	___fldiv@new_exp& (0+255),b
  6339   00208C  0E00               	movlw	0
  6340   00208E  2169               	addwfc	(??___fldiv+1)& (0+255),w,b
  6341   002090  6F72               	movwf	(___fldiv@new_exp+1)& (0+255),b
  6342   002092                     
  6343                           ; BSR set to: 0
  6344   002092  C060  F06C         	movff	___fldiv@b,___fldiv@rem
  6345   002096  C061  F06D         	movff	___fldiv@b+1,___fldiv@rem+1
  6346   00209A  C062  F06E         	movff	___fldiv@b+2,___fldiv@rem+2
  6347   00209E  C063  F06F         	movff	___fldiv@b+3,___fldiv@rem+3
  6348   0020A2                     
  6349                           ; BSR set to: 0
  6350   0020A2  0E00               	movlw	0
  6351   0020A4  6F60               	movwf	___fldiv@b& (0+255),b
  6352   0020A6  0E00               	movlw	0
  6353   0020A8  6F61               	movwf	(___fldiv@b+1)& (0+255),b
  6354   0020AA  0E00               	movlw	0
  6355   0020AC  6F62               	movwf	(___fldiv@b+2)& (0+255),b
  6356   0020AE  0E00               	movlw	0
  6357   0020B0  6F63               	movwf	(___fldiv@b+3)& (0+255),b
  6358   0020B2                     
  6359                           ; BSR set to: 0
  6360   0020B2  0E00               	movlw	0
  6361   0020B4  6F73               	movwf	___fldiv@grs& (0+255),b
  6362   0020B6  0E00               	movlw	0
  6363   0020B8  6F74               	movwf	(___fldiv@grs+1)& (0+255),b
  6364   0020BA  0E00               	movlw	0
  6365   0020BC  6F75               	movwf	(___fldiv@grs+2)& (0+255),b
  6366   0020BE  0E00               	movlw	0
  6367   0020C0  6F76               	movwf	(___fldiv@grs+3)& (0+255),b
  6368   0020C2                     
  6369                           ; BSR set to: 0
  6370   0020C2  0E00               	movlw	0
  6371   0020C4  6F78               	movwf	___fldiv@aexp& (0+255),b
  6372   0020C6  EF9D  F010         	goto	l705
  6373   0020CA                     l4171:
  6374                           
  6375                           ; BSR set to: 0
  6376   0020CA  5178               	movf	___fldiv@aexp& (0+255),w,b
  6377   0020CC  B4D8               	btfsc	status,2,c
  6378   0020CE  EF6B  F010         	goto	u4431
  6379   0020D2  EF6D  F010         	goto	u4430
  6380   0020D6                     u4431:
  6381   0020D6  EF84  F010         	goto	l4179
  6382   0020DA                     u4430:
  6383   0020DA                     
  6384                           ; BSR set to: 0
  6385   0020DA  90D8               	bcf	status,0,c
  6386   0020DC  376C               	rlcf	___fldiv@rem& (0+255),f,b
  6387   0020DE  376D               	rlcf	(___fldiv@rem+1)& (0+255),f,b
  6388   0020E0  376E               	rlcf	(___fldiv@rem+2)& (0+255),f,b
  6389   0020E2  376F               	rlcf	(___fldiv@rem+3)& (0+255),f,b
  6390   0020E4  90D8               	bcf	status,0,c
  6391   0020E6  3760               	rlcf	___fldiv@b& (0+255),f,b
  6392   0020E8  3761               	rlcf	(___fldiv@b+1)& (0+255),f,b
  6393   0020EA  3762               	rlcf	(___fldiv@b+2)& (0+255),f,b
  6394   0020EC  3763               	rlcf	(___fldiv@b+3)& (0+255),f,b
  6395   0020EE                     
  6396                           ; BSR set to: 0
  6397   0020EE  AF76               	btfss	(___fldiv@grs+3)& (0+255),7,b
  6398   0020F0  EF7C  F010         	goto	u4441
  6399   0020F4  EF7E  F010         	goto	u4440
  6400   0020F8                     u4441:
  6401   0020F8  EF7F  F010         	goto	l708
  6402   0020FC                     u4440:
  6403   0020FC                     
  6404                           ; BSR set to: 0
  6405   0020FC  8160               	bsf	___fldiv@b& (0+255),0,b
  6406   0020FE                     l708:
  6407                           
  6408                           ; BSR set to: 0
  6409   0020FE  90D8               	bcf	status,0,c
  6410   002100  3773               	rlcf	___fldiv@grs& (0+255),f,b
  6411   002102  3774               	rlcf	(___fldiv@grs+1)& (0+255),f,b
  6412   002104  3775               	rlcf	(___fldiv@grs+2)& (0+255),f,b
  6413   002106  3776               	rlcf	(___fldiv@grs+3)& (0+255),f,b
  6414   002108                     l4179:
  6415                           
  6416                           ; BSR set to: 0
  6417   002108  5164               	movf	___fldiv@a& (0+255),w,b
  6418   00210A  5D6C               	subwf	___fldiv@rem& (0+255),w,b
  6419   00210C  5165               	movf	(___fldiv@a+1)& (0+255),w,b
  6420   00210E  596D               	subwfb	(___fldiv@rem+1)& (0+255),w,b
  6421   002110  5166               	movf	(___fldiv@a+2)& (0+255),w,b
  6422   002112  596E               	subwfb	(___fldiv@rem+2)& (0+255),w,b
  6423   002114  5167               	movf	(___fldiv@a+3)& (0+255),w,b
  6424   002116  596F               	subwfb	(___fldiv@rem+3)& (0+255),w,b
  6425   002118  A0D8               	btfss	status,0,c
  6426   00211A  EF91  F010         	goto	u4451
  6427   00211E  EF93  F010         	goto	u4450
  6428   002122                     u4451:
  6429   002122  EF9C  F010         	goto	l4185
  6430   002126                     u4450:
  6431   002126                     
  6432                           ; BSR set to: 0
  6433   002126  8D76               	bsf	(___fldiv@grs+3)& (0+255),6,b
  6434   002128                     
  6435                           ; BSR set to: 0
  6436   002128  5164               	movf	___fldiv@a& (0+255),w,b
  6437   00212A  5F6C               	subwf	___fldiv@rem& (0+255),f,b
  6438   00212C  5165               	movf	(___fldiv@a+1)& (0+255),w,b
  6439   00212E  5B6D               	subwfb	(___fldiv@rem+1)& (0+255),f,b
  6440   002130  5166               	movf	(___fldiv@a+2)& (0+255),w,b
  6441   002132  5B6E               	subwfb	(___fldiv@rem+2)& (0+255),f,b
  6442   002134  5167               	movf	(___fldiv@a+3)& (0+255),w,b
  6443   002136  5B6F               	subwfb	(___fldiv@rem+3)& (0+255),f,b
  6444   002138                     l4185:
  6445                           
  6446                           ; BSR set to: 0
  6447   002138  2B78               	incf	___fldiv@aexp& (0+255),f,b
  6448   00213A                     l705:
  6449                           
  6450                           ; BSR set to: 0
  6451   00213A  0E19               	movlw	25
  6452   00213C  6578               	cpfsgt	___fldiv@aexp& (0+255),b
  6453   00213E  EFA3  F010         	goto	u4461
  6454   002142  EFA5  F010         	goto	u4460
  6455   002146                     u4461:
  6456   002146  EF65  F010         	goto	l4171
  6457   00214A                     u4460:
  6458   00214A                     
  6459                           ; BSR set to: 0
  6460   00214A  516C               	movf	___fldiv@rem& (0+255),w,b
  6461   00214C  116D               	iorwf	(___fldiv@rem+1)& (0+255),w,b
  6462   00214E  116E               	iorwf	(___fldiv@rem+2)& (0+255),w,b
  6463   002150  116F               	iorwf	(___fldiv@rem+3)& (0+255),w,b
  6464   002152  B4D8               	btfsc	status,2,c
  6465   002154  EFAE  F010         	goto	u4471
  6466   002158  EFB0  F010         	goto	u4470
  6467   00215C                     u4471:
  6468   00215C  EFC8  F010         	goto	l4197
  6469   002160                     u4470:
  6470   002160                     
  6471                           ; BSR set to: 0
  6472   002160  8173               	bsf	___fldiv@grs& (0+255),0,b
  6473   002162  EFC8  F010         	goto	l4197
  6474   002166                     l4191:
  6475                           
  6476                           ; BSR set to: 0
  6477   002166  90D8               	bcf	status,0,c
  6478   002168  3760               	rlcf	___fldiv@b& (0+255),f,b
  6479   00216A  3761               	rlcf	(___fldiv@b+1)& (0+255),f,b
  6480   00216C  3762               	rlcf	(___fldiv@b+2)& (0+255),f,b
  6481   00216E  3763               	rlcf	(___fldiv@b+3)& (0+255),f,b
  6482   002170                     
  6483                           ; BSR set to: 0
  6484   002170  AF76               	btfss	(___fldiv@grs+3)& (0+255),7,b
  6485   002172  EFBD  F010         	goto	u4481
  6486   002176  EFBF  F010         	goto	u4480
  6487   00217A                     u4481:
  6488   00217A  EFC0  F010         	goto	l714
  6489   00217E                     u4480:
  6490   00217E                     
  6491                           ; BSR set to: 0
  6492   00217E  8160               	bsf	___fldiv@b& (0+255),0,b
  6493   002180                     l714:
  6494                           
  6495                           ; BSR set to: 0
  6496   002180  90D8               	bcf	status,0,c
  6497   002182  3773               	rlcf	___fldiv@grs& (0+255),f,b
  6498   002184  3774               	rlcf	(___fldiv@grs+1)& (0+255),f,b
  6499   002186  3775               	rlcf	(___fldiv@grs+2)& (0+255),f,b
  6500   002188  3776               	rlcf	(___fldiv@grs+3)& (0+255),f,b
  6501   00218A  0771               	decf	___fldiv@new_exp& (0+255),f,b
  6502   00218C  A0D8               	btfss	status,0,c
  6503   00218E  0772               	decf	(___fldiv@new_exp+1)& (0+255),f,b
  6504   002190                     l4197:
  6505                           
  6506                           ; BSR set to: 0
  6507   002190  AF62               	btfss	(___fldiv@b+2)& (0+255),7,b
  6508   002192  EFCD  F010         	goto	u4491
  6509   002196  EFCF  F010         	goto	u4490
  6510   00219A                     u4491:
  6511   00219A  EFB3  F010         	goto	l4191
  6512   00219E                     u4490:
  6513   00219E                     
  6514                           ; BSR set to: 0
  6515   00219E  0E00               	movlw	0
  6516   0021A0  6F78               	movwf	___fldiv@aexp& (0+255),b
  6517   0021A2                     
  6518                           ; BSR set to: 0
  6519   0021A2  AF76               	btfss	(___fldiv@grs+3)& (0+255),7,b
  6520   0021A4  EFD6  F010         	goto	u4501
  6521   0021A8  EFD8  F010         	goto	u4500
  6522   0021AC                     u4501:
  6523   0021AC  EFFC  F010         	goto	l716
  6524   0021B0                     u4500:
  6525   0021B0                     
  6526                           ; BSR set to: 0
  6527   0021B0  0EFF               	movlw	255
  6528   0021B2  1573               	andwf	___fldiv@grs& (0+255),w,b
  6529   0021B4  6F68               	movwf	??___fldiv& (0+255),b
  6530   0021B6  0EFF               	movlw	255
  6531   0021B8  1574               	andwf	(___fldiv@grs+1)& (0+255),w,b
  6532   0021BA  6F69               	movwf	(??___fldiv+1)& (0+255),b
  6533   0021BC  0EFF               	movlw	255
  6534   0021BE  1575               	andwf	(___fldiv@grs+2)& (0+255),w,b
  6535   0021C0  6F6A               	movwf	(??___fldiv+2)& (0+255),b
  6536   0021C2  0E7F               	movlw	127
  6537   0021C4  1576               	andwf	(___fldiv@grs+3)& (0+255),w,b
  6538   0021C6  6F6B               	movwf	(??___fldiv+3)& (0+255),b
  6539   0021C8  5168               	movf	??___fldiv& (0+255),w,b
  6540   0021CA  1169               	iorwf	(??___fldiv+1)& (0+255),w,b
  6541   0021CC  116A               	iorwf	(??___fldiv+2)& (0+255),w,b
  6542   0021CE  116B               	iorwf	(??___fldiv+3)& (0+255),w,b
  6543   0021D0  B4D8               	btfsc	status,2,c
  6544   0021D2  EFED  F010         	goto	u4511
  6545   0021D6  EFEF  F010         	goto	u4510
  6546   0021DA                     u4511:
  6547   0021DA  EFF3  F010         	goto	l717
  6548   0021DE                     u4510:
  6549   0021DE                     l4205:
  6550                           
  6551                           ; BSR set to: 0
  6552   0021DE  0E01               	movlw	1
  6553   0021E0  6F78               	movwf	___fldiv@aexp& (0+255),b
  6554   0021E2  EFFC  F010         	goto	l716
  6555   0021E6                     l717:
  6556                           
  6557                           ; BSR set to: 0
  6558   0021E6  A160               	btfss	___fldiv@b& (0+255),0,b
  6559   0021E8  EFF8  F010         	goto	u4521
  6560   0021EC  EFFA  F010         	goto	u4520
  6561   0021F0                     u4521:
  6562   0021F0  EFFC  F010         	goto	l716
  6563   0021F4                     u4520:
  6564   0021F4  EFEF  F010         	goto	l4205
  6565   0021F8                     l716:
  6566                           
  6567                           ; BSR set to: 0
  6568   0021F8  5178               	movf	___fldiv@aexp& (0+255),w,b
  6569   0021FA  B4D8               	btfsc	status,2,c
  6570   0021FC  EF02  F011         	goto	u4531
  6571   002200  EF04  F011         	goto	u4530
  6572   002204                     u4531:
  6573   002204  EF28  F011         	goto	l4217
  6574   002208                     u4530:
  6575   002208                     
  6576                           ; BSR set to: 0
  6577   002208  0E01               	movlw	1
  6578   00220A  2760               	addwf	___fldiv@b& (0+255),f,b
  6579   00220C  0E00               	movlw	0
  6580   00220E  2361               	addwfc	(___fldiv@b+1)& (0+255),f,b
  6581   002210  2362               	addwfc	(___fldiv@b+2)& (0+255),f,b
  6582   002212  2363               	addwfc	(___fldiv@b+3)& (0+255),f,b
  6583   002214                     
  6584                           ; BSR set to: 0
  6585   002214  A163               	btfss	(___fldiv@b+3)& (0+255),0,b
  6586   002216  EF0F  F011         	goto	u4541
  6587   00221A  EF11  F011         	goto	u4540
  6588   00221E                     u4541:
  6589   00221E  EF28  F011         	goto	l4217
  6590   002222                     u4540:
  6591   002222                     
  6592                           ; BSR set to: 0
  6593   002222  C060  F068         	movff	___fldiv@b,??___fldiv
  6594   002226  C061  F069         	movff	___fldiv@b+1,??___fldiv+1
  6595   00222A  C062  F06A         	movff	___fldiv@b+2,??___fldiv+2
  6596   00222E  C063  F06B         	movff	___fldiv@b+3,??___fldiv+3
  6597   002232  356B               	rlcf	(??___fldiv+3)& (0+255),w,b
  6598   002234  336B               	rrcf	(??___fldiv+3)& (0+255),f,b
  6599   002236  336A               	rrcf	(??___fldiv+2)& (0+255),f,b
  6600   002238  3369               	rrcf	(??___fldiv+1)& (0+255),f,b
  6601   00223A  3368               	rrcf	??___fldiv& (0+255),f,b
  6602   00223C  C068  F060         	movff	??___fldiv,___fldiv@b
  6603   002240  C069  F061         	movff	??___fldiv+1,___fldiv@b+1
  6604   002244  C06A  F062         	movff	??___fldiv+2,___fldiv@b+2
  6605   002248  C06B  F063         	movff	??___fldiv+3,___fldiv@b+3
  6606   00224C                     
  6607                           ; BSR set to: 0
  6608   00224C  4B71               	infsnz	___fldiv@new_exp& (0+255),f,b
  6609   00224E  2B72               	incf	(___fldiv@new_exp+1)& (0+255),f,b
  6610   002250                     l4217:
  6611                           
  6612                           ; BSR set to: 0
  6613   002250  BF72               	btfsc	(___fldiv@new_exp+1)& (0+255),7,b
  6614   002252  EF33  F011         	goto	u4551
  6615   002256  5172               	movf	(___fldiv@new_exp+1)& (0+255),w,b
  6616   002258  E108               	bnz	u4550
  6617   00225A  2971               	incf	___fldiv@new_exp& (0+255),w,b
  6618   00225C  A0D8               	btfss	status,0,c
  6619   00225E  EF33  F011         	goto	u4551
  6620   002262  EF35  F011         	goto	u4550
  6621   002266                     u4551:
  6622   002266  EF40  F011         	goto	l4221
  6623   00226A                     u4550:
  6624   00226A                     
  6625                           ; BSR set to: 0
  6626   00226A  0E00               	movlw	0
  6627   00226C  6F72               	movwf	(___fldiv@new_exp+1)& (0+255),b
  6628   00226E  6971               	setf	___fldiv@new_exp& (0+255),b
  6629   002270  0E00               	movlw	0
  6630   002272  6F60               	movwf	___fldiv@b& (0+255),b
  6631   002274  0E00               	movlw	0
  6632   002276  6F61               	movwf	(___fldiv@b+1)& (0+255),b
  6633   002278  0E00               	movlw	0
  6634   00227A  6F62               	movwf	(___fldiv@b+2)& (0+255),b
  6635   00227C  0E00               	movlw	0
  6636   00227E  6F63               	movwf	(___fldiv@b+3)& (0+255),b
  6637   002280                     l4221:
  6638                           
  6639                           ; BSR set to: 0
  6640   002280  BF72               	btfsc	(___fldiv@new_exp+1)& (0+255),7,b
  6641   002282  EF4D  F011         	goto	u4560
  6642   002286  5172               	movf	(___fldiv@new_exp+1)& (0+255),w,b
  6643   002288  E106               	bnz	u4561
  6644   00228A  0571               	decf	___fldiv@new_exp& (0+255),w,b
  6645   00228C  B0D8               	btfsc	status,0,c
  6646   00228E  EF4B  F011         	goto	u4561
  6647   002292  EF4D  F011         	goto	u4560
  6648   002296                     u4561:
  6649   002296  EF5B  F011         	goto	l4225
  6650   00229A                     u4560:
  6651   00229A                     
  6652                           ; BSR set to: 0
  6653   00229A  0E00               	movlw	0
  6654   00229C  6F72               	movwf	(___fldiv@new_exp+1)& (0+255),b
  6655   00229E  0E00               	movlw	0
  6656   0022A0  6F71               	movwf	___fldiv@new_exp& (0+255),b
  6657   0022A2  0E00               	movlw	0
  6658   0022A4  6F60               	movwf	___fldiv@b& (0+255),b
  6659   0022A6  0E00               	movlw	0
  6660   0022A8  6F61               	movwf	(___fldiv@b+1)& (0+255),b
  6661   0022AA  0E00               	movlw	0
  6662   0022AC  6F62               	movwf	(___fldiv@b+2)& (0+255),b
  6663   0022AE  0E00               	movlw	0
  6664   0022B0  6F63               	movwf	(___fldiv@b+3)& (0+255),b
  6665   0022B2  0E00               	movlw	0
  6666   0022B4  6F70               	movwf	___fldiv@sign& (0+255),b
  6667   0022B6                     l4225:
  6668                           
  6669                           ; BSR set to: 0
  6670   0022B6  C071  F077         	movff	___fldiv@new_exp,___fldiv@bexp
  6671   0022BA                     
  6672                           ; BSR set to: 0
  6673   0022BA  A177               	btfss	___fldiv@bexp& (0+255),0,b
  6674   0022BC  EF62  F011         	goto	u4571
  6675   0022C0  EF64  F011         	goto	u4570
  6676   0022C4                     u4571:
  6677   0022C4  EF67  F011         	goto	l4231
  6678   0022C8                     u4570:
  6679   0022C8                     
  6680                           ; BSR set to: 0
  6681   0022C8  8F62               	bsf	(___fldiv@b+2)& (0+255),7,b
  6682   0022CA  EF68  F011         	goto	l4233
  6683   0022CE                     l4231:
  6684                           
  6685                           ; BSR set to: 0
  6686   0022CE  9F62               	bcf	(___fldiv@b+2)& (0+255),7,b
  6687   0022D0                     l4233:
  6688                           
  6689                           ; BSR set to: 0
  6690   0022D0  90D8               	bcf	status,0,c
  6691   0022D2  3177               	rrcf	___fldiv@bexp& (0+255),w,b
  6692   0022D4  6F63               	movwf	(___fldiv@b+3)& (0+255),b
  6693   0022D6  EF1E  F010         	goto	l4147
  6694   0022DA                     l703:
  6695                           
  6696                           ; BSR set to: 0
  6697   0022DA  0012               	return		;funcret
  6698   0022DC                     __end_of___fldiv:
  6699                           	callstack 0
  6700                           
  6701 ;; *************** function _config_timer1 *****************
  6702 ;; Defined at:
  6703 ;;		line 56 in file "main.c"
  6704 ;; Parameters:    Size  Location     Type
  6705 ;;		None
  6706 ;; Auto vars:     Size  Location     Type
  6707 ;;		None
  6708 ;; Return value:  Size  Location     Type
  6709 ;;                  1    wreg      void 
  6710 ;; Registers used:
  6711 ;;		wreg, status,2
  6712 ;; Tracked objects:
  6713 ;;		On entry : 0/0
  6714 ;;		On exit  : 0/0
  6715 ;;		Unchanged: 0/0
  6716 ;; Data sizes:     COMRAM   BANK0   BANK1   BANK2   BANK3   BANK4   BANK5   BANK6   BANK7
  6717 ;;      Params:         0       0       0       0       0       0       0       0       0
  6718 ;;      Locals:         0       0       0       0       0       0       0       0       0
  6719 ;;      Temps:          0       0       0       0       0       0       0       0       0
  6720 ;;      Totals:         0       0       0       0       0       0       0       0       0
  6721 ;;Total ram usage:        0 bytes
  6722 ;; Hardware stack levels used: 1
  6723 ;; Hardware stack levels required when called: 2
  6724 ;; This function calls:
  6725 ;;		Nothing
  6726 ;; This function is called by:
  6727 ;;		_main
  6728 ;; This function uses a non-reentrant model
  6729 ;;
  6730                           
  6731                           	psect	text23
  6732   003458                     __ptext23:
  6733                           	callstack 0
  6734   003458                     _config_timer1:
  6735                           	callstack 28
  6736   003458                     
  6737                           ;main.c: 57:     T1CONbits.T1CKPS = 0;
  6738   003458  0ECF               	movlw	-49
  6739   00345A  16CD               	andwf	205,f,c	;volatile
  6740   00345C                     
  6741                           ;main.c: 58:     T1CONbits.TMR1CS = 0;
  6742   00345C  92CD               	bcf	205,1,c	;volatile
  6743   00345E                     
  6744                           ;main.c: 59:     T1CONbits.RD16 = 1;
  6745   00345E  8ECD               	bsf	205,7,c	;volatile
  6746                           
  6747                           ;main.c: 60:     TMR1H = 0;
  6748   003460  0E00               	movlw	0
  6749   003462  6ECF               	movwf	207,c	;volatile
  6750                           
  6751                           ;main.c: 61:     TMR1L = 0;
  6752   003464  0E00               	movlw	0
  6753   003466  6ECE               	movwf	206,c	;volatile
  6754   003468  0012               	return		;funcret
  6755   00346A                     __end_of_config_timer1:
  6756                           	callstack 0
  6757                           
  6758 ;; *************** function _config_interrups *****************
  6759 ;; Defined at:
  6760 ;;		line 49 in file "main.c"
  6761 ;; Parameters:    Size  Location     Type
  6762 ;;		None
  6763 ;; Auto vars:     Size  Location     Type
  6764 ;;		None
  6765 ;; Return value:  Size  Location     Type
  6766 ;;                  1    wreg      void 
  6767 ;; Registers used:
  6768 ;;		None
  6769 ;; Tracked objects:
  6770 ;;		On entry : 0/0
  6771 ;;		On exit  : 0/0
  6772 ;;		Unchanged: 0/0
  6773 ;; Data sizes:     COMRAM   BANK0   BANK1   BANK2   BANK3   BANK4   BANK5   BANK6   BANK7
  6774 ;;      Params:         0       0       0       0       0       0       0       0       0
  6775 ;;      Locals:         0       0       0       0       0       0       0       0       0
  6776 ;;      Temps:          0       0       0       0       0       0       0       0       0
  6777 ;;      Totals:         0       0       0       0       0       0       0       0       0
  6778 ;;Total ram usage:        0 bytes
  6779 ;; Hardware stack levels used: 1
  6780 ;; Hardware stack levels required when called: 2
  6781 ;; This function calls:
  6782 ;;		Nothing
  6783 ;; This function is called by:
  6784 ;;		_main
  6785 ;; This function uses a non-reentrant model
  6786 ;;
  6787                           
  6788                           	psect	text24
  6789   00348E                     __ptext24:
  6790                           	callstack 0
  6791   00348E                     _config_interrups:
  6792                           	callstack 28
  6793   00348E                     
  6794                           ;main.c: 50:     INTCONbits.GIE = 1;
  6795   00348E  8EF2               	bsf	242,7,c	;volatile
  6796                           
  6797                           ;main.c: 51:     INTCONbits.PEIE = 1;
  6798   003490  8CF2               	bsf	242,6,c	;volatile
  6799                           
  6800                           ;main.c: 52:     PIR1bits.CCP1IF = 0;
  6801   003492  949E               	bcf	158,2,c	;volatile
  6802                           
  6803                           ;main.c: 53:     PIE1bits.CCP1IE = 1;
  6804   003494  849D               	bsf	157,2,c	;volatile
  6805   003496  0012               	return		;funcret
  6806   003498                     __end_of_config_interrups:
  6807                           	callstack 0
  6808                           
  6809 ;; *************** function _ccp1_config *****************
  6810 ;; Defined at:
  6811 ;;		line 64 in file "main.c"
  6812 ;; Parameters:    Size  Location     Type
  6813 ;;		None
  6814 ;; Auto vars:     Size  Location     Type
  6815 ;;		None
  6816 ;; Return value:  Size  Location     Type
  6817 ;;                  1    wreg      void 
  6818 ;; Registers used:
  6819 ;;		wreg, status,2
  6820 ;; Tracked objects:
  6821 ;;		On entry : 0/0
  6822 ;;		On exit  : 0/0
  6823 ;;		Unchanged: 0/0
  6824 ;; Data sizes:     COMRAM   BANK0   BANK1   BANK2   BANK3   BANK4   BANK5   BANK6   BANK7
  6825 ;;      Params:         0       0       0       0       0       0       0       0       0
  6826 ;;      Locals:         0       0       0       0       0       0       0       0       0
  6827 ;;      Temps:          0       0       0       0       0       0       0       0       0
  6828 ;;      Totals:         0       0       0       0       0       0       0       0       0
  6829 ;;Total ram usage:        0 bytes
  6830 ;; Hardware stack levels used: 1
  6831 ;; Hardware stack levels required when called: 2
  6832 ;; This function calls:
  6833 ;;		Nothing
  6834 ;; This function is called by:
  6835 ;;		_main
  6836 ;; This function uses a non-reentrant model
  6837 ;;
  6838                           
  6839                           	psect	text25
  6840   003498                     __ptext25:
  6841                           	callstack 0
  6842   003498                     _ccp1_config:
  6843                           	callstack 28
  6844   003498                     
  6845                           ;main.c: 65:     CCP1CONbits.CCP1M = 0b0100;
  6846   003498  50BD               	movf	189,w,c	;volatile
  6847   00349A  0BF0               	andlw	-16
  6848   00349C  0904               	iorlw	4
  6849   00349E  6EBD               	movwf	189,c	;volatile
  6850   0034A0  0012               	return		;funcret
  6851   0034A2                     __end_of_ccp1_config:
  6852                           	callstack 0
  6853                           
  6854 ;; *************** function _LCD_Out *****************
  6855 ;; Defined at:
  6856 ;;		line 123 in file "LIBRERIA_LCD.c"
  6857 ;; Parameters:    Size  Location     Type
  6858 ;;  row             1    wreg     unsigned char 
  6859 ;;  column          1    8[BANK0 ] unsigned char 
  6860 ;;  text            2    9[BANK0 ] PTR unsigned char 
  6861 ;;		 -> STR_2(21), aux(20), 
  6862 ;; Auto vars:     Size  Location     Type
  6863 ;;  row             1   11[BANK0 ] unsigned char 
  6864 ;; Return value:  Size  Location     Type
  6865 ;;                  1    wreg      void 
  6866 ;; Registers used:
  6867 ;;		wreg, fsr1l, fsr1h, status,2, status,0, tblptrl, tblptrh, tblptru, cstack
  6868 ;; Tracked objects:
  6869 ;;		On entry : 0/0
  6870 ;;		On exit  : 0/0
  6871 ;;		Unchanged: 0/0
  6872 ;; Data sizes:     COMRAM   BANK0   BANK1   BANK2   BANK3   BANK4   BANK5   BANK6   BANK7
  6873 ;;      Params:         0       3       0       0       0       0       0       0       0
  6874 ;;      Locals:         0       1       0       0       0       0       0       0       0
  6875 ;;      Temps:          0       0       0       0       0       0       0       0       0
  6876 ;;      Totals:         0       4       0       0       0       0       0       0       0
  6877 ;;Total ram usage:        4 bytes
  6878 ;; Hardware stack levels used: 1
  6879 ;; Hardware stack levels required when called: 5
  6880 ;; This function calls:
  6881 ;;		_LCD_Chr_Cp
  6882 ;;		_LCD_XY
  6883 ;; This function is called by:
  6884 ;;		_main
  6885 ;;		_LCD_LIMPIA_FILA
  6886 ;; This function uses a non-reentrant model
  6887 ;;
  6888                           
  6889                           	psect	text26
  6890   0030B2                     __ptext26:
  6891                           	callstack 0
  6892   0030B2                     _LCD_Out:
  6893                           	callstack 25
  6894                           
  6895                           ;incstack = 0
  6896                           ;LCD_Out@row stored from wreg
  6897   0030B2  0100               	movlb	0	; () banked
  6898   0030B4  6F6B               	movwf	LCD_Out@row& (0+255),b
  6899   0030B6                     
  6900                           ;LIBRERIA_LCD.c: 124:     LCD_XY(row,column);
  6901   0030B6  C068  F064         	movff	LCD_Out@column,LCD_XY@column
  6902   0030BA  0100               	movlb	0	; () banked
  6903   0030BC  516B               	movf	LCD_Out@row& (0+255),w,b
  6904   0030BE  EC94  F017         	call	_LCD_XY
  6905                           
  6906                           ;LIBRERIA_LCD.c: 125:     while(*text){
  6907   0030C2  EF78  F018         	goto	l4945
  6908   0030C6                     l4941:
  6909                           
  6910                           ;LIBRERIA_LCD.c: 126:         LCD_Chr_Cp(*text);
  6911   0030C6  C069  FFF6         	movff	LCD_Out@text,tblptrl
  6912   0030CA  C06A  FFF7         	movff	LCD_Out@text+1,tblptrh
  6913   0030CE  6AF8               	clrf	tblptru,c
  6914   0030D0  0E07               	movlw	(high __ramtop+-1)
  6915   0030D2  64F7               	cpfsgt	tblptrh,c
  6916   0030D4  D003               	bra	u5387
  6917   0030D6  0008               	tblrd		*
  6918   0030D8  50F5               	movf	tablat,w,c
  6919   0030DA  D005               	bra	u5380
  6920   0030DC                     u5387:
  6921   0030DC  CFF6 FFE1          	movff	tblptrl,fsr1l
  6922   0030E0  CFF7 FFE2          	movff	tblptrh,fsr1h
  6923   0030E4  50E7               	movf	indf1,w,c
  6924   0030E6                     u5380:
  6925   0030E6  EC3E  F01A         	call	_LCD_Chr_Cp
  6926   0030EA                     
  6927                           ;LIBRERIA_LCD.c: 127:         text++;
  6928   0030EA  0100               	movlb	0	; () banked
  6929   0030EC  4B69               	infsnz	LCD_Out@text& (0+255),f,b
  6930   0030EE  2B6A               	incf	(LCD_Out@text+1)& (0+255),f,b
  6931   0030F0                     l4945:
  6932                           
  6933                           ;LIBRERIA_LCD.c: 125:     while(*text){
  6934   0030F0  C069  FFF6         	movff	LCD_Out@text,tblptrl
  6935   0030F4  C06A  FFF7         	movff	LCD_Out@text+1,tblptrh
  6936   0030F8  6AF8               	clrf	tblptru,c
  6937   0030FA  0E07               	movlw	(high __ramtop+-1)
  6938   0030FC  64F7               	cpfsgt	tblptrh,c
  6939   0030FE  D003               	bra	u5397
  6940   003100  0008               	tblrd		*
  6941   003102  50F5               	movf	tablat,w,c
  6942   003104  D005               	bra	u5390
  6943   003106                     u5397:
  6944   003106  CFF6 FFE1          	movff	tblptrl,fsr1l
  6945   00310A  CFF7 FFE2          	movff	tblptrh,fsr1h
  6946   00310E  50E7               	movf	indf1,w,c
  6947   003110                     u5390:
  6948   003110  0900               	iorlw	0
  6949   003112  A4D8               	btfss	status,2,c
  6950   003114  EF8E  F018         	goto	u5401
  6951   003118  EF90  F018         	goto	u5400
  6952   00311C                     u5401:
  6953   00311C  EF63  F018         	goto	l4941
  6954   003120                     u5400:
  6955   003120  0012               	return		;funcret
  6956   003122                     __end_of_LCD_Out:
  6957                           	callstack 0
  6958                           
  6959 ;; *************** function _LCD_XY *****************
  6960 ;; Defined at:
  6961 ;;		line 103 in file "LIBRERIA_LCD.c"
  6962 ;; Parameters:    Size  Location     Type
  6963 ;;  row             1    wreg     unsigned char 
  6964 ;;  column          1    4[BANK0 ] unsigned char 
  6965 ;; Auto vars:     Size  Location     Type
  6966 ;;  row             1    7[BANK0 ] unsigned char 
  6967 ;; Return value:  Size  Location     Type
  6968 ;;                  1    wreg      void 
  6969 ;; Registers used:
  6970 ;;		wreg, status,2, status,0, cstack
  6971 ;; Tracked objects:
  6972 ;;		On entry : 0/0
  6973 ;;		On exit  : 0/0
  6974 ;;		Unchanged: 0/0
  6975 ;; Data sizes:     COMRAM   BANK0   BANK1   BANK2   BANK3   BANK4   BANK5   BANK6   BANK7
  6976 ;;      Params:         0       1       0       0       0       0       0       0       0
  6977 ;;      Locals:         0       1       0       0       0       0       0       0       0
  6978 ;;      Temps:          0       2       0       0       0       0       0       0       0
  6979 ;;      Totals:         0       4       0       0       0       0       0       0       0
  6980 ;;Total ram usage:        4 bytes
  6981 ;; Hardware stack levels used: 1
  6982 ;; Hardware stack levels required when called: 4
  6983 ;; This function calls:
  6984 ;;		_LCD_Cmd
  6985 ;; This function is called by:
  6986 ;;		_LCD_Out
  6987 ;;		_LCD_Chr
  6988 ;; This function uses a non-reentrant model
  6989 ;;
  6990                           
  6991                           	psect	text27
  6992   002F28                     __ptext27:
  6993                           	callstack 0
  6994   002F28                     _LCD_XY:
  6995                           	callstack 25
  6996                           
  6997                           ;incstack = 0
  6998                           ;LCD_XY@row stored from wreg
  6999   002F28  0100               	movlb	0	; () banked
  7000   002F2A  6F67               	movwf	LCD_XY@row& (0+255),b
  7001   002F2C                     
  7002                           ;LIBRERIA_LCD.c: 105:     switch(row){
  7003   002F2C  EFB0  F017         	goto	l4855
  7004   002F30                     l4845:
  7005                           
  7006                           ; BSR set to: 0
  7007   002F30  5164               	movf	LCD_XY@column& (0+255),w,b
  7008   002F32  0F7F               	addlw	127
  7009   002F34  EC35  F01A         	call	_LCD_Cmd
  7010   002F38  EFCE  F017         	goto	l4857
  7011   002F3C                     l4847:
  7012                           
  7013                           ; BSR set to: 0
  7014   002F3C  5164               	movf	LCD_XY@column& (0+255),w,b
  7015   002F3E  0FBF               	addlw	191
  7016   002F40  EC35  F01A         	call	_LCD_Cmd
  7017   002F44  EFCE  F017         	goto	l4857
  7018   002F48                     l4849:
  7019                           
  7020                           ; BSR set to: 0
  7021   002F48  5164               	movf	LCD_XY@column& (0+255),w,b
  7022   002F4A  0F93               	addlw	147
  7023   002F4C  EC35  F01A         	call	_LCD_Cmd
  7024   002F50  EFCE  F017         	goto	l4857
  7025   002F54                     l4851:
  7026                           
  7027                           ; BSR set to: 0
  7028   002F54  5164               	movf	LCD_XY@column& (0+255),w,b
  7029   002F56  0FD3               	addlw	211
  7030   002F58  EC35  F01A         	call	_LCD_Cmd
  7031   002F5C  EFCE  F017         	goto	l4857
  7032   002F60                     l4855:
  7033   002F60  0100               	movlb	0	; () banked
  7034   002F62  5167               	movf	LCD_XY@row& (0+255),w,b
  7035   002F64  6F65               	movwf	??_LCD_XY& (0+255),b
  7036   002F66  6B66               	clrf	(??_LCD_XY+1)& (0+255),b
  7037                           
  7038                           ; Switch on 2 bytes has been partitioned into a top level switch of size 1, and 1 sub-sw
      +                          itches
  7039                           ; Switch size 1, requested type "simple"
  7040                           ; Number of cases is 1, Range of values is 0 to 0
  7041                           ; switch strategies available:
  7042                           ; Name         Instructions Cycles
  7043                           ; simple_byte            4     3 (average)
  7044                           ;	Chosen strategy is simple_byte
  7045   002F68  5166               	movf	(??_LCD_XY+1)& (0+255),w,b
  7046   002F6A  0A00               	xorlw	0	; case 0
  7047   002F6C  B4D8               	btfsc	status,2,c
  7048   002F6E  EFBB  F017         	goto	l5099
  7049   002F72  EFCE  F017         	goto	l4857
  7050   002F76                     l5099:
  7051                           
  7052                           ; BSR set to: 0
  7053                           ; Switch size 1, requested type "simple"
  7054                           ; Number of cases is 4, Range of values is 1 to 4
  7055                           ; switch strategies available:
  7056                           ; Name         Instructions Cycles
  7057                           ; simple_byte           13     7 (average)
  7058                           ;	Chosen strategy is simple_byte
  7059   002F76  5165               	movf	??_LCD_XY& (0+255),w,b
  7060   002F78  0A01               	xorlw	1	; case 1
  7061   002F7A  B4D8               	btfsc	status,2,c
  7062   002F7C  EF98  F017         	goto	l4845
  7063   002F80  0A03               	xorlw	3	; case 2
  7064   002F82  B4D8               	btfsc	status,2,c
  7065   002F84  EF9E  F017         	goto	l4847
  7066   002F88  0A01               	xorlw	1	; case 3
  7067   002F8A  B4D8               	btfsc	status,2,c
  7068   002F8C  EFA4  F017         	goto	l4849
  7069   002F90  0A07               	xorlw	7	; case 4
  7070   002F92  B4D8               	btfsc	status,2,c
  7071   002F94  EFAA  F017         	goto	l4851
  7072   002F98  EFCE  F017         	goto	l4857
  7073   002F9C                     l4857:
  7074                           
  7075                           ;LIBRERIA_LCD.c: 111:     _delay((unsigned long)((100)*(4000000L/4000.0)));
  7076   002F9C  0E82               	movlw	130
  7077   002F9E  0100               	movlb	0	; () banked
  7078   002FA0  6F65               	movwf	??_LCD_XY& (0+255),b
  7079   002FA2  0EDD               	movlw	221
  7080   002FA4                     u5427:
  7081   002FA4  2EE8               	decfsz	wreg,f,c
  7082   002FA6  D7FE               	bra	u5427
  7083   002FA8  2F65               	decfsz	??_LCD_XY& (0+255),f,b
  7084   002FAA  D7FC               	bra	u5427
  7085   002FAC  D000               	nop2	
  7086   002FAE                     
  7087                           ;LIBRERIA_LCD.c: 112:     LATDbits.LATD0=0;
  7088   002FAE  908C               	bcf	140,0,c	;volatile
  7089   002FB0  0012               	return		;funcret
  7090   002FB2                     __end_of_LCD_XY:
  7091                           	callstack 0
  7092                           
  7093 ;; *************** function _LCD_Cmd *****************
  7094 ;; Defined at:
  7095 ;;		line 96 in file "LIBRERIA_LCD.c"
  7096 ;; Parameters:    Size  Location     Type
  7097 ;;  cmd             1    wreg     unsigned char 
  7098 ;; Auto vars:     Size  Location     Type
  7099 ;;  cmd             1    3[BANK0 ] unsigned char 
  7100 ;; Return value:  Size  Location     Type
  7101 ;;                  1    wreg      void 
  7102 ;; Registers used:
  7103 ;;		wreg, status,2, status,0, cstack
  7104 ;; Tracked objects:
  7105 ;;		On entry : 0/0
  7106 ;;		On exit  : 0/0
  7107 ;;		Unchanged: 0/0
  7108 ;; Data sizes:     COMRAM   BANK0   BANK1   BANK2   BANK3   BANK4   BANK5   BANK6   BANK7
  7109 ;;      Params:         0       0       0       0       0       0       0       0       0
  7110 ;;      Locals:         0       1       0       0       0       0       0       0       0
  7111 ;;      Temps:          0       0       0       0       0       0       0       0       0
  7112 ;;      Totals:         0       1       0       0       0       0       0       0       0
  7113 ;;Total ram usage:        1 bytes
  7114 ;; Hardware stack levels used: 1
  7115 ;; Hardware stack levels required when called: 3
  7116 ;; This function calls:
  7117 ;;		_enviar_dato
  7118 ;; This function is called by:
  7119 ;;		_main
  7120 ;;		_LCD_XY
  7121 ;; This function uses a non-reentrant model
  7122 ;;
  7123                           
  7124                           	psect	text28
  7125   00346A                     __ptext28:
  7126                           	callstack 0
  7127   00346A                     _LCD_Cmd:
  7128                           	callstack 25
  7129                           
  7130                           ;incstack = 0
  7131                           ;LCD_Cmd@cmd stored from wreg
  7132   00346A  0100               	movlb	0	; () banked
  7133   00346C  6F63               	movwf	LCD_Cmd@cmd& (0+255),b
  7134   00346E                     
  7135                           ;LIBRERIA_LCD.c: 97:     LATDbits.LATD0=0;
  7136   00346E  908C               	bcf	140,0,c	;volatile
  7137   003470                     
  7138                           ;LIBRERIA_LCD.c: 98:     enviar_dato(cmd);
  7139   003470  0100               	movlb	0	; () banked
  7140   003472  5163               	movf	LCD_Cmd@cmd& (0+255),w,b
  7141   003474  EC60  F014         	call	_enviar_dato
  7142   003478                     
  7143                           ;LIBRERIA_LCD.c: 99:     LATDbits.LATD0=0;
  7144   003478  908C               	bcf	140,0,c	;volatile
  7145   00347A  0012               	return		;funcret
  7146   00347C                     __end_of_LCD_Cmd:
  7147                           	callstack 0
  7148                           
  7149 ;; *************** function _LCD_Chr_Cp *****************
  7150 ;; Defined at:
  7151 ;;		line 89 in file "LIBRERIA_LCD.c"
  7152 ;; Parameters:    Size  Location     Type
  7153 ;;  letra           1    wreg     unsigned char 
  7154 ;; Auto vars:     Size  Location     Type
  7155 ;;  letra           1    3[BANK0 ] unsigned char 
  7156 ;; Return value:  Size  Location     Type
  7157 ;;                  1    wreg      void 
  7158 ;; Registers used:
  7159 ;;		wreg, status,2, status,0, cstack
  7160 ;; Tracked objects:
  7161 ;;		On entry : 0/0
  7162 ;;		On exit  : 0/0
  7163 ;;		Unchanged: 0/0
  7164 ;; Data sizes:     COMRAM   BANK0   BANK1   BANK2   BANK3   BANK4   BANK5   BANK6   BANK7
  7165 ;;      Params:         0       0       0       0       0       0       0       0       0
  7166 ;;      Locals:         0       1       0       0       0       0       0       0       0
  7167 ;;      Temps:          0       0       0       0       0       0       0       0       0
  7168 ;;      Totals:         0       1       0       0       0       0       0       0       0
  7169 ;;Total ram usage:        1 bytes
  7170 ;; Hardware stack levels used: 1
  7171 ;; Hardware stack levels required when called: 3
  7172 ;; This function calls:
  7173 ;;		_enviar_dato
  7174 ;; This function is called by:
  7175 ;;		_LCD_Out
  7176 ;;		_LCD_Out_Cp
  7177 ;; This function uses a non-reentrant model
  7178 ;;
  7179                           
  7180                           	psect	text29
  7181   00347C                     __ptext29:
  7182                           	callstack 0
  7183   00347C                     _LCD_Chr_Cp:
  7184                           	callstack 26
  7185                           
  7186                           ;incstack = 0
  7187                           ;LCD_Chr_Cp@letra stored from wreg
  7188   00347C  0100               	movlb	0	; () banked
  7189   00347E  6F63               	movwf	LCD_Chr_Cp@letra& (0+255),b
  7190   003480                     
  7191                           ;LIBRERIA_LCD.c: 90:     LATDbits.LATD0=1;
  7192   003480  808C               	bsf	140,0,c	;volatile
  7193   003482                     
  7194                           ;LIBRERIA_LCD.c: 91:     enviar_dato(letra);
  7195   003482  0100               	movlb	0	; () banked
  7196   003484  5163               	movf	LCD_Chr_Cp@letra& (0+255),w,b
  7197   003486  EC60  F014         	call	_enviar_dato
  7198   00348A                     
  7199                           ;LIBRERIA_LCD.c: 92:     LATDbits.LATD0=0;
  7200   00348A  908C               	bcf	140,0,c	;volatile
  7201   00348C  0012               	return		;funcret
  7202   00348E                     __end_of_LCD_Chr_Cp:
  7203                           	callstack 0
  7204                           
  7205 ;; *************** function _LCD_Init *****************
  7206 ;; Defined at:
  7207 ;;		line 5 in file "LIBRERIA_LCD.c"
  7208 ;; Parameters:    Size  Location     Type
  7209 ;;		None
  7210 ;; Auto vars:     Size  Location     Type
  7211 ;;		None
  7212 ;; Return value:  Size  Location     Type
  7213 ;;                  1    wreg      void 
  7214 ;; Registers used:
  7215 ;;		wreg, status,2, status,0, cstack
  7216 ;; Tracked objects:
  7217 ;;		On entry : 0/0
  7218 ;;		On exit  : 0/0
  7219 ;;		Unchanged: 0/0
  7220 ;; Data sizes:     COMRAM   BANK0   BANK1   BANK2   BANK3   BANK4   BANK5   BANK6   BANK7
  7221 ;;      Params:         0       0       0       0       0       0       0       0       0
  7222 ;;      Locals:         0       0       0       0       0       0       0       0       0
  7223 ;;      Temps:          0       1       0       0       0       0       0       0       0
  7224 ;;      Totals:         0       1       0       0       0       0       0       0       0
  7225 ;;Total ram usage:        1 bytes
  7226 ;; Hardware stack levels used: 1
  7227 ;; Hardware stack levels required when called: 3
  7228 ;; This function calls:
  7229 ;;		_enviar_dato
  7230 ;; This function is called by:
  7231 ;;		_main
  7232 ;; This function uses a non-reentrant model
  7233 ;;
  7234                           
  7235                           	psect	text30
  7236   002DCC                     __ptext30:
  7237                           	callstack 0
  7238   002DCC                     _LCD_Init:
  7239                           	callstack 27
  7240   002DCC                     
  7241                           ;LIBRERIA_LCD.c: 7:     TRISDbits.RD0=0;
  7242   002DCC  9095               	bcf	149,0,c	;volatile
  7243                           
  7244                           ;LIBRERIA_LCD.c: 8:     TRISDbits.RD1=0;
  7245   002DCE  9295               	bcf	149,1,c	;volatile
  7246                           
  7247                           ;LIBRERIA_LCD.c: 9:     TRISDbits.RD4=0;
  7248   002DD0  9895               	bcf	149,4,c	;volatile
  7249                           
  7250                           ;LIBRERIA_LCD.c: 10:     TRISDbits.RD5=0;
  7251   002DD2  9A95               	bcf	149,5,c	;volatile
  7252                           
  7253                           ;LIBRERIA_LCD.c: 11:     TRISDbits.RD6=0;
  7254   002DD4  9C95               	bcf	149,6,c	;volatile
  7255                           
  7256                           ;LIBRERIA_LCD.c: 12:     TRISDbits.RD7=0;
  7257   002DD6  9E95               	bcf	149,7,c	;volatile
  7258                           
  7259                           ;LIBRERIA_LCD.c: 13:     LATDbits.LATD0=0;
  7260   002DD8  908C               	bcf	140,0,c	;volatile
  7261   002DDA                     
  7262                           ;LIBRERIA_LCD.c: 14:     _delay((unsigned long)((15)*(4000000L/4000.0)));
  7263   002DDA  0E14               	movlw	20
  7264   002DDC  0100               	movlb	0	; () banked
  7265   002DDE  6F63               	movwf	??_LCD_Init& (0+255),b
  7266   002DE0  0E79               	movlw	121
  7267   002DE2                     u5437:
  7268   002DE2  2EE8               	decfsz	wreg,f,c
  7269   002DE4  D7FE               	bra	u5437
  7270   002DE6  2F63               	decfsz	??_LCD_Init& (0+255),f,b
  7271   002DE8  D7FC               	bra	u5437
  7272   002DEA  D000               	nop2	
  7273   002DEC                     
  7274                           ;LIBRERIA_LCD.c: 16:     enviar_dato(0x30);
  7275   002DEC  0E30               	movlw	48
  7276   002DEE  EC60  F014         	call	_enviar_dato
  7277   002DF2                     
  7278                           ;LIBRERIA_LCD.c: 17:     _delay((unsigned long)((5)*(4000000L/4000.0)));
  7279   002DF2  0E07               	movlw	7
  7280   002DF4  0100               	movlb	0	; () banked
  7281   002DF6  6F63               	movwf	??_LCD_Init& (0+255),b
  7282   002DF8  0E7D               	movlw	125
  7283   002DFA                     u5447:
  7284   002DFA  2EE8               	decfsz	wreg,f,c
  7285   002DFC  D7FE               	bra	u5447
  7286   002DFE  2F63               	decfsz	??_LCD_Init& (0+255),f,b
  7287   002E00  D7FC               	bra	u5447
  7288                           
  7289                           ;LIBRERIA_LCD.c: 18:     enviar_dato(0x30);
  7290   002E02  0E30               	movlw	48
  7291   002E04  EC60  F014         	call	_enviar_dato
  7292   002E08                     
  7293                           ;LIBRERIA_LCD.c: 19:     _delay((unsigned long)((100)*(4000000L/4000000.0)));
  7294   002E08  0E21               	movlw	33
  7295   002E0A                     u5457:
  7296   002E0A  2EE8               	decfsz	wreg,f,c
  7297   002E0C  D7FE               	bra	u5457
  7298   002E0E  F000               	nop	
  7299   002E10                     
  7300                           ;LIBRERIA_LCD.c: 20:     enviar_dato(0x32);
  7301   002E10  0E32               	movlw	50
  7302   002E12  EC60  F014         	call	_enviar_dato
  7303                           
  7304                           ;LIBRERIA_LCD.c: 21:     _delay((unsigned long)((100)*(4000000L/4000000.0)));
  7305   002E16  0E21               	movlw	33
  7306   002E18                     u5467:
  7307   002E18  2EE8               	decfsz	wreg,f,c
  7308   002E1A  D7FE               	bra	u5467
  7309   002E1C  F000               	nop	
  7310                           
  7311                           ;LIBRERIA_LCD.c: 24:     _delay((unsigned long)((100)*(4000000L/4000000.0)));
  7312   002E1E  0E21               	movlw	33
  7313   002E20                     u5477:
  7314   002E20  2EE8               	decfsz	wreg,f,c
  7315   002E22  D7FE               	bra	u5477
  7316   002E24  F000               	nop	
  7317   002E26                     
  7318                           ;LIBRERIA_LCD.c: 25:     enviar_dato(0x2B);
  7319   002E26  0E2B               	movlw	43
  7320   002E28  EC60  F014         	call	_enviar_dato
  7321   002E2C                     
  7322                           ;LIBRERIA_LCD.c: 26:     _delay((unsigned long)((100)*(4000000L/4000000.0)));
  7323   002E2C  0E21               	movlw	33
  7324   002E2E                     u5487:
  7325   002E2E  2EE8               	decfsz	wreg,f,c
  7326   002E30  D7FE               	bra	u5487
  7327   002E32  F000               	nop	
  7328                           
  7329                           ;LIBRERIA_LCD.c: 27:     enviar_dato(0x08);
  7330   002E34  0E08               	movlw	8
  7331   002E36  EC60  F014         	call	_enviar_dato
  7332   002E3A                     
  7333                           ;LIBRERIA_LCD.c: 28:     _delay((unsigned long)((100)*(4000000L/4000000.0)));
  7334   002E3A  0E21               	movlw	33
  7335   002E3C                     u5497:
  7336   002E3C  2EE8               	decfsz	wreg,f,c
  7337   002E3E  D7FE               	bra	u5497
  7338   002E40  F000               	nop	
  7339   002E42                     
  7340                           ;LIBRERIA_LCD.c: 29:     enviar_dato(0x0F);
  7341   002E42  0E0F               	movlw	15
  7342   002E44  EC60  F014         	call	_enviar_dato
  7343                           
  7344                           ;LIBRERIA_LCD.c: 30:     _delay((unsigned long)((100)*(4000000L/4000000.0)));
  7345   002E48  0E21               	movlw	33
  7346   002E4A                     u5507:
  7347   002E4A  2EE8               	decfsz	wreg,f,c
  7348   002E4C  D7FE               	bra	u5507
  7349   002E4E  F000               	nop	
  7350   002E50                     
  7351                           ;LIBRERIA_LCD.c: 31:     enviar_dato(0x01);
  7352   002E50  0E01               	movlw	1
  7353   002E52  EC60  F014         	call	_enviar_dato
  7354   002E56                     
  7355                           ;LIBRERIA_LCD.c: 32:     _delay((unsigned long)((100)*(4000000L/4000000.0)));
  7356   002E56  0E21               	movlw	33
  7357   002E58                     u5517:
  7358   002E58  2EE8               	decfsz	wreg,f,c
  7359   002E5A  D7FE               	bra	u5517
  7360   002E5C  F000               	nop	
  7361                           
  7362                           ;LIBRERIA_LCD.c: 33:     enviar_dato(0x06);
  7363   002E5E  0E06               	movlw	6
  7364   002E60  EC60  F014         	call	_enviar_dato
  7365   002E64                     
  7366                           ;LIBRERIA_LCD.c: 34:     _delay((unsigned long)((100)*(4000000L/4000000.0)));
  7367   002E64  0E21               	movlw	33
  7368   002E66                     u5527:
  7369   002E66  2EE8               	decfsz	wreg,f,c
  7370   002E68  D7FE               	bra	u5527
  7371   002E6A  F000               	nop	
  7372   002E6C                     
  7373                           ;LIBRERIA_LCD.c: 36:     enviar_dato(0x0F);
  7374   002E6C  0E0F               	movlw	15
  7375   002E6E  EC60  F014         	call	_enviar_dato
  7376                           
  7377                           ;LIBRERIA_LCD.c: 37:     _delay((unsigned long)((100)*(4000000L/4000000.0)));
  7378   002E72  0E21               	movlw	33
  7379   002E74                     u5537:
  7380   002E74  2EE8               	decfsz	wreg,f,c
  7381   002E76  D7FE               	bra	u5537
  7382   002E78  F000               	nop	
  7383   002E7A  0012               	return		;funcret
  7384   002E7C                     __end_of_LCD_Init:
  7385                           	callstack 0
  7386                           
  7387 ;; *************** function _enviar_dato *****************
  7388 ;; Defined at:
  7389 ;;		line 42 in file "LIBRERIA_LCD.c"
  7390 ;; Parameters:    Size  Location     Type
  7391 ;;  cmd             1    wreg     unsigned char 
  7392 ;; Auto vars:     Size  Location     Type
  7393 ;;  cmd             1    2[BANK0 ] unsigned char 
  7394 ;; Return value:  Size  Location     Type
  7395 ;;                  1    wreg      void 
  7396 ;; Registers used:
  7397 ;;		wreg, status,2, status,0
  7398 ;; Tracked objects:
  7399 ;;		On entry : 0/0
  7400 ;;		On exit  : 0/0
  7401 ;;		Unchanged: 0/0
  7402 ;; Data sizes:     COMRAM   BANK0   BANK1   BANK2   BANK3   BANK4   BANK5   BANK6   BANK7
  7403 ;;      Params:         0       0       0       0       0       0       0       0       0
  7404 ;;      Locals:         0       1       0       0       0       0       0       0       0
  7405 ;;      Temps:          0       2       0       0       0       0       0       0       0
  7406 ;;      Totals:         0       3       0       0       0       0       0       0       0
  7407 ;;Total ram usage:        3 bytes
  7408 ;; Hardware stack levels used: 1
  7409 ;; Hardware stack levels required when called: 2
  7410 ;; This function calls:
  7411 ;;		Nothing
  7412 ;; This function is called by:
  7413 ;;		_LCD_Init
  7414 ;;		_LCD_Chr_Cp
  7415 ;;		_LCD_Cmd
  7416 ;;		_LCD_Chr
  7417 ;; This function uses a non-reentrant model
  7418 ;;
  7419                           
  7420                           	psect	text31
  7421   0028C0                     __ptext31:
  7422                           	callstack 0
  7423   0028C0                     _enviar_dato:
  7424                           	callstack 25
  7425                           
  7426                           ;incstack = 0
  7427                           ;enviar_dato@cmd stored from wreg
  7428   0028C0  0100               	movlb	0	; () banked
  7429   0028C2  6F62               	movwf	enviar_dato@cmd& (0+255),b
  7430   0028C4                     
  7431                           ;LIBRERIA_LCD.c: 43:     TRISDbits.RD4=0;
  7432   0028C4  9895               	bcf	149,4,c	;volatile
  7433                           
  7434                           ;LIBRERIA_LCD.c: 44:     TRISDbits.RD5=0;
  7435   0028C6  9A95               	bcf	149,5,c	;volatile
  7436                           
  7437                           ;LIBRERIA_LCD.c: 45:     TRISDbits.RD6=0;
  7438   0028C8  9C95               	bcf	149,6,c	;volatile
  7439                           
  7440                           ;LIBRERIA_LCD.c: 46:     TRISDbits.RD7=0;
  7441   0028CA  9E95               	bcf	149,7,c	;volatile
  7442                           
  7443                           ;LIBRERIA_LCD.c: 47:     LATDbits.LATD4=0;
  7444   0028CC  988C               	bcf	140,4,c	;volatile
  7445                           
  7446                           ;LIBRERIA_LCD.c: 48:     LATDbits.LATD5=0;
  7447   0028CE  9A8C               	bcf	140,5,c	;volatile
  7448                           
  7449                           ;LIBRERIA_LCD.c: 49:     LATDbits.LATD6=0;
  7450   0028D0  9C8C               	bcf	140,6,c	;volatile
  7451                           
  7452                           ;LIBRERIA_LCD.c: 50:     LATDbits.LATD7=0;
  7453   0028D2  9E8C               	bcf	140,7,c	;volatile
  7454                           
  7455                           ;LIBRERIA_LCD.c: 52:     LATDbits.LATD1=0;
  7456   0028D4  928C               	bcf	140,1,c	;volatile
  7457   0028D6                     
  7458                           ;LIBRERIA_LCD.c: 53:     _delay((unsigned long)((100)*(4000000L/4000000.0)));
  7459   0028D6  0E21               	movlw	33
  7460   0028D8                     u5547:
  7461   0028D8  2EE8               	decfsz	wreg,f,c
  7462   0028DA  D7FE               	bra	u5547
  7463   0028DC  F000               	nop	
  7464   0028DE                     
  7465                           ;LIBRERIA_LCD.c: 55:     LATDbits.LATD4=(cmd>>4)&0x01;
  7466   0028DE  C062  F060         	movff	enviar_dato@cmd,??_enviar_dato
  7467   0028E2  0100               	movlb	0	; () banked
  7468   0028E4  3B60               	swapf	??_enviar_dato& (0+255),f,b
  7469   0028E6  0E0F               	movlw	15
  7470   0028E8  1760               	andwf	??_enviar_dato& (0+255),f,b
  7471   0028EA  0E01               	movlw	1
  7472   0028EC  1760               	andwf	??_enviar_dato& (0+255),f,b
  7473   0028EE  3B60               	swapf	??_enviar_dato& (0+255),f,b
  7474   0028F0  508C               	movf	140,w,c	;volatile
  7475   0028F2  1960               	xorwf	??_enviar_dato& (0+255),w,b
  7476   0028F4  0BEF               	andlw	-17
  7477   0028F6  1960               	xorwf	??_enviar_dato& (0+255),w,b
  7478   0028F8  6E8C               	movwf	140,c	;volatile
  7479   0028FA                     
  7480                           ; BSR set to: 0
  7481                           ;LIBRERIA_LCD.c: 56:     LATDbits.LATD5=(cmd>>5)&0x01;
  7482   0028FA  C062  F060         	movff	enviar_dato@cmd,??_enviar_dato
  7483   0028FE  0E05               	movlw	5
  7484   002900  6F61               	movwf	(??_enviar_dato+1)& (0+255),b
  7485   002902                     u5005:
  7486   002902  90D8               	bcf	status,0,c
  7487   002904  3360               	rrcf	??_enviar_dato& (0+255),f,b
  7488   002906  2F61               	decfsz	(??_enviar_dato+1)& (0+255),f,b
  7489   002908  EF81  F014         	goto	u5005
  7490   00290C  0E01               	movlw	1
  7491   00290E  1760               	andwf	??_enviar_dato& (0+255),f,b
  7492   002910  3B60               	swapf	??_enviar_dato& (0+255),f,b
  7493   002912  4760               	rlncf	??_enviar_dato& (0+255),f,b
  7494   002914  508C               	movf	140,w,c	;volatile
  7495   002916  1960               	xorwf	??_enviar_dato& (0+255),w,b
  7496   002918  0BDF               	andlw	-33
  7497   00291A  1960               	xorwf	??_enviar_dato& (0+255),w,b
  7498   00291C  6E8C               	movwf	140,c	;volatile
  7499   00291E                     
  7500                           ; BSR set to: 0
  7501                           ;LIBRERIA_LCD.c: 57:     LATDbits.LATD6=(cmd>>6)&0x01;
  7502   00291E  C062  F060         	movff	enviar_dato@cmd,??_enviar_dato
  7503   002922  0E06               	movlw	6
  7504   002924  6F61               	movwf	(??_enviar_dato+1)& (0+255),b
  7505   002926                     u5015:
  7506   002926  90D8               	bcf	status,0,c
  7507   002928  3360               	rrcf	??_enviar_dato& (0+255),f,b
  7508   00292A  2F61               	decfsz	(??_enviar_dato+1)& (0+255),f,b
  7509   00292C  EF93  F014         	goto	u5015
  7510   002930  0E01               	movlw	1
  7511   002932  1760               	andwf	??_enviar_dato& (0+255),f,b
  7512   002934  3B60               	swapf	??_enviar_dato& (0+255),f,b
  7513   002936  4760               	rlncf	??_enviar_dato& (0+255),f,b
  7514   002938  4760               	rlncf	??_enviar_dato& (0+255),f,b
  7515   00293A  508C               	movf	140,w,c	;volatile
  7516   00293C  1960               	xorwf	??_enviar_dato& (0+255),w,b
  7517   00293E  0BBF               	andlw	-65
  7518   002940  1960               	xorwf	??_enviar_dato& (0+255),w,b
  7519   002942  6E8C               	movwf	140,c	;volatile
  7520   002944                     
  7521                           ; BSR set to: 0
  7522                           ;LIBRERIA_LCD.c: 58:     LATDbits.LATD7=(cmd>>7)&0x01;
  7523   002944  6B60               	clrf	??_enviar_dato& (0+255),b
  7524   002946  AF62               	btfss	enviar_dato@cmd& (0+255),7,b
  7525   002948  D001               	bra	u5025
  7526   00294A  2B60               	incf	??_enviar_dato& (0+255),f,b
  7527   00294C                     u5025:
  7528   00294C  0E01               	movlw	1
  7529   00294E  1760               	andwf	??_enviar_dato& (0+255),f,b
  7530   002950  3360               	rrcf	??_enviar_dato& (0+255),f,b
  7531   002952  3360               	rrcf	??_enviar_dato& (0+255),f,b
  7532   002954  508C               	movf	140,w,c	;volatile
  7533   002956  1960               	xorwf	??_enviar_dato& (0+255),w,b
  7534   002958  0B7F               	andlw	-129
  7535   00295A  1960               	xorwf	??_enviar_dato& (0+255),w,b
  7536   00295C  6E8C               	movwf	140,c	;volatile
  7537   00295E                     
  7538                           ; BSR set to: 0
  7539                           ;LIBRERIA_LCD.c: 60:     LATDbits.LATD1=1;
  7540   00295E  828C               	bsf	140,1,c	;volatile
  7541   002960                     
  7542                           ; BSR set to: 0
  7543                           ;LIBRERIA_LCD.c: 61:     _delay((unsigned long)((100)*(4000000L/4000000.0)));
  7544   002960  0E21               	movlw	33
  7545   002962                     u5557:
  7546   002962  2EE8               	decfsz	wreg,f,c
  7547   002964  D7FE               	bra	u5557
  7548   002966  F000               	nop	
  7549   002968                     
  7550                           ;LIBRERIA_LCD.c: 62:     LATDbits.LATD1=0;
  7551   002968  928C               	bcf	140,1,c	;volatile
  7552   00296A                     
  7553                           ;LIBRERIA_LCD.c: 64:     LATDbits.LATD4= cmd&0x01;
  7554   00296A  C062  F060         	movff	enviar_dato@cmd,??_enviar_dato
  7555   00296E  0E01               	movlw	1
  7556   002970  0100               	movlb	0	; () banked
  7557   002972  1760               	andwf	??_enviar_dato& (0+255),f,b
  7558   002974  3B60               	swapf	??_enviar_dato& (0+255),f,b
  7559   002976  508C               	movf	140,w,c	;volatile
  7560   002978  1960               	xorwf	??_enviar_dato& (0+255),w,b
  7561   00297A  0BEF               	andlw	-17
  7562   00297C  1960               	xorwf	??_enviar_dato& (0+255),w,b
  7563   00297E  6E8C               	movwf	140,c	;volatile
  7564   002980                     
  7565                           ; BSR set to: 0
  7566                           ;LIBRERIA_LCD.c: 65:     LATDbits.LATD5=(cmd&0x0F)>>1;
  7567   002980  C062  F060         	movff	enviar_dato@cmd,??_enviar_dato
  7568   002984  90D8               	bcf	status,0,c
  7569   002986  3360               	rrcf	??_enviar_dato& (0+255),f,b
  7570   002988  0E07               	movlw	7
  7571   00298A  1760               	andwf	??_enviar_dato& (0+255),f,b
  7572   00298C  3B60               	swapf	??_enviar_dato& (0+255),f,b
  7573   00298E  4760               	rlncf	??_enviar_dato& (0+255),f,b
  7574   002990  508C               	movf	140,w,c	;volatile
  7575   002992  1960               	xorwf	??_enviar_dato& (0+255),w,b
  7576   002994  0BDF               	andlw	-33
  7577   002996  1960               	xorwf	??_enviar_dato& (0+255),w,b
  7578   002998  6E8C               	movwf	140,c	;volatile
  7579   00299A                     
  7580                           ; BSR set to: 0
  7581                           ;LIBRERIA_LCD.c: 66:     LATDbits.LATD6=(cmd&0x0F)>>2;
  7582   00299A  C062  F060         	movff	enviar_dato@cmd,??_enviar_dato
  7583   00299E  90D8               	bcf	status,0,c
  7584   0029A0  3360               	rrcf	??_enviar_dato& (0+255),f,b
  7585   0029A2  90D8               	bcf	status,0,c
  7586   0029A4  3360               	rrcf	??_enviar_dato& (0+255),f,b
  7587   0029A6  0E03               	movlw	3
  7588   0029A8  1760               	andwf	??_enviar_dato& (0+255),f,b
  7589   0029AA  3B60               	swapf	??_enviar_dato& (0+255),f,b
  7590   0029AC  4760               	rlncf	??_enviar_dato& (0+255),f,b
  7591   0029AE  4760               	rlncf	??_enviar_dato& (0+255),f,b
  7592   0029B0  508C               	movf	140,w,c	;volatile
  7593   0029B2  1960               	xorwf	??_enviar_dato& (0+255),w,b
  7594   0029B4  0BBF               	andlw	-65
  7595   0029B6  1960               	xorwf	??_enviar_dato& (0+255),w,b
  7596   0029B8  6E8C               	movwf	140,c	;volatile
  7597   0029BA                     
  7598                           ; BSR set to: 0
  7599                           ;LIBRERIA_LCD.c: 67:     LATDbits.LATD7=(cmd&0x0F)>>3;
  7600   0029BA  C062  F060         	movff	enviar_dato@cmd,??_enviar_dato
  7601   0029BE  90D8               	bcf	status,0,c
  7602   0029C0  3360               	rrcf	??_enviar_dato& (0+255),f,b
  7603   0029C2  90D8               	bcf	status,0,c
  7604   0029C4  3360               	rrcf	??_enviar_dato& (0+255),f,b
  7605   0029C6  90D8               	bcf	status,0,c
  7606   0029C8  3360               	rrcf	??_enviar_dato& (0+255),f,b
  7607   0029CA  0E01               	movlw	1
  7608   0029CC  1760               	andwf	??_enviar_dato& (0+255),f,b
  7609   0029CE  3360               	rrcf	??_enviar_dato& (0+255),f,b
  7610   0029D0  3360               	rrcf	??_enviar_dato& (0+255),f,b
  7611   0029D2  508C               	movf	140,w,c	;volatile
  7612   0029D4  1960               	xorwf	??_enviar_dato& (0+255),w,b
  7613   0029D6  0B7F               	andlw	-129
  7614   0029D8  1960               	xorwf	??_enviar_dato& (0+255),w,b
  7615   0029DA  6E8C               	movwf	140,c	;volatile
  7616   0029DC                     
  7617                           ; BSR set to: 0
  7618                           ;LIBRERIA_LCD.c: 69:     LATDbits.LATD1=1;
  7619   0029DC  828C               	bsf	140,1,c	;volatile
  7620   0029DE                     
  7621                           ; BSR set to: 0
  7622                           ;LIBRERIA_LCD.c: 70:     _delay((unsigned long)((100)*(4000000L/4000000.0)));
  7623   0029DE  0E21               	movlw	33
  7624   0029E0                     u5567:
  7625   0029E0  2EE8               	decfsz	wreg,f,c
  7626   0029E2  D7FE               	bra	u5567
  7627   0029E4  F000               	nop	
  7628   0029E6                     
  7629                           ;LIBRERIA_LCD.c: 71:     LATDbits.LATD1=0;
  7630   0029E6  928C               	bcf	140,1,c	;volatile
  7631   0029E8                     
  7632                           ;LIBRERIA_LCD.c: 73:     TRISDbits.RD4=1;
  7633   0029E8  8895               	bsf	149,4,c	;volatile
  7634   0029EA                     
  7635                           ;LIBRERIA_LCD.c: 74:     TRISDbits.RD5=1;
  7636   0029EA  8A95               	bsf	149,5,c	;volatile
  7637   0029EC                     
  7638                           ;LIBRERIA_LCD.c: 75:     TRISDbits.RD6=1;
  7639   0029EC  8C95               	bsf	149,6,c	;volatile
  7640   0029EE                     
  7641                           ;LIBRERIA_LCD.c: 76:     TRISDbits.RD7=1;
  7642   0029EE  8E95               	bsf	149,7,c	;volatile
  7643   0029F0  0012               	return		;funcret
  7644   0029F2                     __end_of_enviar_dato:
  7645                           	callstack 0
  7646                           
  7647 ;; *************** function _captura *****************
  7648 ;; Defined at:
  7649 ;;		line 12 in file "main.c"
  7650 ;; Parameters:    Size  Location     Type
  7651 ;;		None
  7652 ;; Auto vars:     Size  Location     Type
  7653 ;;		None
  7654 ;; Return value:  Size  Location     Type
  7655 ;;                  1    wreg      void 
  7656 ;; Registers used:
  7657 ;;		wreg, status,2, status,0, prodl, prodh, cstack
  7658 ;; Tracked objects:
  7659 ;;		On entry : 0/0
  7660 ;;		On exit  : 0/0
  7661 ;;		Unchanged: 0/0
  7662 ;; Data sizes:     COMRAM   BANK0   BANK1   BANK2   BANK3   BANK4   BANK5   BANK6   BANK7
  7663 ;;      Params:         0       0       0       0       0       0       0       0       0
  7664 ;;      Locals:         0       0       0       0       0       0       0       0       0
  7665 ;;      Temps:          4       0       0       0       0       0       0       0       0
  7666 ;;      Totals:         4       0       0       0       0       0       0       0       0
  7667 ;;Total ram usage:        4 bytes
  7668 ;; Hardware stack levels used: 1
  7669 ;; Hardware stack levels required when called: 1
  7670 ;; This function calls:
  7671 ;;		___xxtofl
  7672 ;;		i2___flmul
  7673 ;; This function is called by:
  7674 ;;		Interrupt level 2
  7675 ;; This function uses a non-reentrant model
  7676 ;;
  7677                           
  7678                           	psect	intcode
  7679   000008                     __pintcode:
  7680                           	callstack 0
  7681   000008                     _captura:
  7682                           	callstack 21
  7683                           
  7684                           ;incstack = 0
  7685   000008  8246               	bsf	int$flags,1,c	;set compiler interrupt flag (level 2)
  7686   00000A  EDD9  F017         	call	int_func,f	;refresh shadow registers
  7687                           
  7688                           	psect	intcode_body
  7689   002FB2                     __pintcode_body:
  7690                           	callstack 21
  7691   002FB2                     int_func:
  7692                           	callstack 21
  7693   002FB2  0006               	pop		; remove dummy address from shadow register refresh
  7694   002FB4  CFF3 F02A          	movff	prodl,??_captura+2
  7695   002FB8  CFF4 F02B          	movff	prodh,??_captura+3
  7696   002FBC                     
  7697                           ;main.c: 13:     pasos = CCPR1H << 8 | CCPR1L;
  7698   002FBC  50BE               	movf	190,w,c	;volatile
  7699   002FBE  CFBF F028          	movff	4031,??_captura	;volatile
  7700   002FC2  6A29               	clrf	(??_captura+1)^0,c
  7701   002FC4  C028  F029         	movff	??_captura,??_captura+1
  7702   002FC8  6A28               	clrf	??_captura^0,c
  7703   002FCA  1028               	iorwf	??_captura^0,w,c
  7704   002FCC  6E44               	movwf	_pasos^0,c
  7705   002FCE  5029               	movf	(??_captura+1)^0,w,c
  7706   002FD0  6E45               	movwf	(_pasos+1)^0,c
  7707   002FD2                     
  7708                           ;main.c: 14:     TMR1H = 0;
  7709   002FD2  0E00               	movlw	0
  7710   002FD4  6ECF               	movwf	207,c	;volatile
  7711   002FD6                     
  7712                           ;main.c: 15:     TMR1L = 0;
  7713   002FD6  0E00               	movlw	0
  7714   002FD8  6ECE               	movwf	206,c	;volatile
  7715   002FDA                     
  7716                           ;main.c: 18:     periodo = pasos * 0.000001;
  7717   002FDA  C044  F001         	movff	_pasos,___xxtofl@val
  7718   002FDE  C045  F002         	movff	_pasos+1,___xxtofl@val+1
  7719   002FE2  0E00               	movlw	0
  7720   002FE4  BE02               	btfsc	(___xxtofl@val+1)^0,7,c
  7721   002FE6  0EFF               	movlw	-1
  7722   002FE8  6E03               	movwf	(___xxtofl@val+2)^0,c
  7723   002FEA  6E04               	movwf	(___xxtofl@val+3)^0,c
  7724   002FEC  0E01               	movlw	1
  7725   002FEE  EC86  F013         	call	___xxtofl
  7726   002FF2  C001  F00F         	movff	?___xxtofl,i2___flmul@b
  7727   002FF6  C002  F010         	movff	?___xxtofl+1,i2___flmul@b+1
  7728   002FFA  C003  F011         	movff	?___xxtofl+2,i2___flmul@b+2
  7729   002FFE  C004  F012         	movff	?___xxtofl+3,i2___flmul@b+3
  7730   003002  0EBD               	movlw	189
  7731   003004  6E13               	movwf	i2___flmul@a^0,c
  7732   003006  0E37               	movlw	55
  7733   003008  6E14               	movwf	(i2___flmul@a+1)^0,c
  7734   00300A  0E86               	movlw	134
  7735   00300C  6E15               	movwf	(i2___flmul@a+2)^0,c
  7736   00300E  0E35               	movlw	53
  7737   003010  6E16               	movwf	(i2___flmul@a+3)^0,c
  7738   003012  EC8B  F00D         	call	i2___flmul	;wreg free
  7739   003016  C00F  F0F6         	movff	?i2___flmul,_periodo
  7740   00301A  C010  F0F7         	movff	?i2___flmul+1,_periodo+1
  7741   00301E  C011  F0F8         	movff	?i2___flmul+2,_periodo+2
  7742   003022  C012  F0F9         	movff	?i2___flmul+3,_periodo+3
  7743   003026                     
  7744                           ;main.c: 20:     PIR1bits.CCP1IF = 0;
  7745   003026  949E               	bcf	158,2,c	;volatile
  7746   003028  C02B  FFF4         	movff	??_captura+3,prodh
  7747   00302C  C02A  FFF3         	movff	??_captura+2,prodl
  7748   003030  9246               	bcf	int$flags,1,c	;clear compiler interrupt flag (level 2)
  7749   003032  0011               	retfie		f
  7750   003034                     __end_of_captura:
  7751                           	callstack 0
  7752                           
  7753 ;; *************** function i2___flmul *****************
  7754 ;; Defined at:
  7755 ;;		line 8 in file "C:\Program Files\Microchip\xc8\v2.40\pic\sources\c99\common\sprcmul.c"
  7756 ;; Parameters:    Size  Location     Type
  7757 ;;  b               4   14[COMRAM] void 
  7758 ;;  a               4   18[COMRAM] void 
  7759 ;; Auto vars:     Size  Location     Type
  7760 ;;  prod            4   33[COMRAM] struct .
  7761 ;;  grs             4   27[COMRAM] unsigned long 
  7762 ;;  temp            2   37[COMRAM] struct .
  7763 ;;  bexp            1   32[COMRAM] unsigned char 
  7764 ;;  aexp            1   31[COMRAM] unsigned char 
  7765 ;;  sign            1   26[COMRAM] unsigned char 
  7766 ;; Return value:  Size  Location     Type
  7767 ;;                  4   14[COMRAM] unsigned char 
  7768 ;; Registers used:
  7769 ;;		wreg, status,2, status,0, prodl, prodh
  7770 ;; Tracked objects:
  7771 ;;		On entry : 0/0
  7772 ;;		On exit  : 0/0
  7773 ;;		Unchanged: 0/0
  7774 ;; Data sizes:     COMRAM   BANK0   BANK1   BANK2   BANK3   BANK4   BANK5   BANK6   BANK7
  7775 ;;      Params:         8       0       0       0       0       0       0       0       0
  7776 ;;      Locals:        13       0       0       0       0       0       0       0       0
  7777 ;;      Temps:          4       0       0       0       0       0       0       0       0
  7778 ;;      Totals:        25       0       0       0       0       0       0       0       0
  7779 ;;Total ram usage:       25 bytes
  7780 ;; Hardware stack levels used: 1
  7781 ;; This function calls:
  7782 ;;		Nothing
  7783 ;; This function is called by:
  7784 ;;		_captura
  7785 ;; This function uses a non-reentrant model
  7786 ;;
  7787                           
  7788                           	psect	text33
  7789   001B16                     __ptext33:
  7790                           	callstack 0
  7791   001B16                     i2___flmul:
  7792                           	callstack 21
  7793   001B16  5012               	movf	(i2___flmul@b+3)^0,w,c
  7794   001B18  0B80               	andlw	128
  7795   001B1A  6E1B               	movwf	i2___flmul@sign^0,c
  7796   001B1C  5012               	movf	(i2___flmul@b+3)^0,w,c
  7797   001B1E  2412               	addwf	(i2___flmul@b+3)^0,w,c
  7798   001B20  6E21               	movwf	i2___flmul@bexp^0,c
  7799   001B22  AE11               	btfss	(i2___flmul@b+2)^0,7,c
  7800   001B24  EF96  F00D         	goto	i2u371_41
  7801   001B28  EF98  F00D         	goto	i2u371_40
  7802   001B2C                     i2u371_41:
  7803   001B2C  EF99  F00D         	goto	i2l3599
  7804   001B30                     i2u371_40:
  7805   001B30  8021               	bsf	i2___flmul@bexp^0,0,c
  7806   001B32                     i2l3599:
  7807   001B32  5021               	movf	i2___flmul@bexp^0,w,c
  7808   001B34  B4D8               	btfsc	status,2,c
  7809   001B36  EF9F  F00D         	goto	i2u372_41
  7810   001B3A  EFA1  F00D         	goto	i2u372_40
  7811   001B3E                     i2u372_41:
  7812   001B3E  EFB4  F00D         	goto	i2l3607
  7813   001B42                     i2u372_40:
  7814   001B42  2821               	incf	i2___flmul@bexp^0,w,c
  7815   001B44  A4D8               	btfss	status,2,c
  7816   001B46  EFA7  F00D         	goto	i2u373_41
  7817   001B4A  EFA9  F00D         	goto	i2u373_40
  7818   001B4E                     i2u373_41:
  7819   001B4E  EFB1  F00D         	goto	i2l3605
  7820   001B52                     i2u373_40:
  7821   001B52  0E00               	movlw	0
  7822   001B54  6E0F               	movwf	i2___flmul@b^0,c
  7823   001B56  0E00               	movlw	0
  7824   001B58  6E10               	movwf	(i2___flmul@b+1)^0,c
  7825   001B5A  0E00               	movlw	0
  7826   001B5C  6E11               	movwf	(i2___flmul@b+2)^0,c
  7827   001B5E  0E00               	movlw	0
  7828   001B60  6E12               	movwf	(i2___flmul@b+3)^0,c
  7829   001B62                     i2l3605:
  7830   001B62  8E11               	bsf	(i2___flmul@b+2)^0,7,c
  7831   001B64  EFBC  F00D         	goto	i2l3609
  7832   001B68                     i2l3607:
  7833   001B68  0E00               	movlw	0
  7834   001B6A  6E0F               	movwf	i2___flmul@b^0,c
  7835   001B6C  0E00               	movlw	0
  7836   001B6E  6E10               	movwf	(i2___flmul@b+1)^0,c
  7837   001B70  0E00               	movlw	0
  7838   001B72  6E11               	movwf	(i2___flmul@b+2)^0,c
  7839   001B74  0E00               	movlw	0
  7840   001B76  6E12               	movwf	(i2___flmul@b+3)^0,c
  7841   001B78                     i2l3609:
  7842   001B78  5016               	movf	(i2___flmul@a+3)^0,w,c
  7843   001B7A  0B80               	andlw	128
  7844   001B7C  1A1B               	xorwf	i2___flmul@sign^0,f,c
  7845   001B7E  5016               	movf	(i2___flmul@a+3)^0,w,c
  7846   001B80  2416               	addwf	(i2___flmul@a+3)^0,w,c
  7847   001B82  6E20               	movwf	i2___flmul@aexp^0,c
  7848   001B84  AE15               	btfss	(i2___flmul@a+2)^0,7,c
  7849   001B86  EFC7  F00D         	goto	i2u374_41
  7850   001B8A  EFC9  F00D         	goto	i2u374_40
  7851   001B8E                     i2u374_41:
  7852   001B8E  EFCA  F00D         	goto	i2l3617
  7853   001B92                     i2u374_40:
  7854   001B92  8020               	bsf	i2___flmul@aexp^0,0,c
  7855   001B94                     i2l3617:
  7856   001B94  5020               	movf	i2___flmul@aexp^0,w,c
  7857   001B96  B4D8               	btfsc	status,2,c
  7858   001B98  EFD0  F00D         	goto	i2u375_41
  7859   001B9C  EFD2  F00D         	goto	i2u375_40
  7860   001BA0                     i2u375_41:
  7861   001BA0  EFE5  F00D         	goto	i2l3625
  7862   001BA4                     i2u375_40:
  7863   001BA4  2820               	incf	i2___flmul@aexp^0,w,c
  7864   001BA6  A4D8               	btfss	status,2,c
  7865   001BA8  EFD8  F00D         	goto	i2u376_41
  7866   001BAC  EFDA  F00D         	goto	i2u376_40
  7867   001BB0                     i2u376_41:
  7868   001BB0  EFE2  F00D         	goto	i2l3623
  7869   001BB4                     i2u376_40:
  7870   001BB4  0E00               	movlw	0
  7871   001BB6  6E13               	movwf	i2___flmul@a^0,c
  7872   001BB8  0E00               	movlw	0
  7873   001BBA  6E14               	movwf	(i2___flmul@a+1)^0,c
  7874   001BBC  0E00               	movlw	0
  7875   001BBE  6E15               	movwf	(i2___flmul@a+2)^0,c
  7876   001BC0  0E00               	movlw	0
  7877   001BC2  6E16               	movwf	(i2___flmul@a+3)^0,c
  7878   001BC4                     i2l3623:
  7879   001BC4  8E15               	bsf	(i2___flmul@a+2)^0,7,c
  7880   001BC6  EFED  F00D         	goto	i2l735
  7881   001BCA                     i2l3625:
  7882   001BCA  0E00               	movlw	0
  7883   001BCC  6E13               	movwf	i2___flmul@a^0,c
  7884   001BCE  0E00               	movlw	0
  7885   001BD0  6E14               	movwf	(i2___flmul@a+1)^0,c
  7886   001BD2  0E00               	movlw	0
  7887   001BD4  6E15               	movwf	(i2___flmul@a+2)^0,c
  7888   001BD6  0E00               	movlw	0
  7889   001BD8  6E16               	movwf	(i2___flmul@a+3)^0,c
  7890   001BDA                     i2l735:
  7891   001BDA  5020               	movf	i2___flmul@aexp^0,w,c
  7892   001BDC  B4D8               	btfsc	status,2,c
  7893   001BDE  EFF3  F00D         	goto	i2u377_41
  7894   001BE2  EFF5  F00D         	goto	i2u377_40
  7895   001BE6                     i2u377_41:
  7896   001BE6  EFFD  F00D         	goto	i2l3629
  7897   001BEA                     i2u377_40:
  7898   001BEA  5021               	movf	i2___flmul@bexp^0,w,c
  7899   001BEC  A4D8               	btfss	status,2,c
  7900   001BEE  EFFB  F00D         	goto	i2u378_41
  7901   001BF2  EFFD  F00D         	goto	i2u378_40
  7902   001BF6                     i2u378_41:
  7903   001BF6  EF07  F00E         	goto	i2l3633
  7904   001BFA                     i2u378_40:
  7905   001BFA                     i2l3629:
  7906   001BFA  0E00               	movlw	0
  7907   001BFC  6E0F               	movwf	?i2___flmul^0,c
  7908   001BFE  0E00               	movlw	0
  7909   001C00  6E10               	movwf	(?i2___flmul+1)^0,c
  7910   001C02  0E00               	movlw	0
  7911   001C04  6E11               	movwf	(?i2___flmul+2)^0,c
  7912   001C06  0E00               	movlw	0
  7913   001C08  6E12               	movwf	(?i2___flmul+3)^0,c
  7914   001C0A  EF9F  F00F         	goto	i2l739
  7915   001C0E                     i2l3633:
  7916   001C0E  5015               	movf	(i2___flmul@a+2)^0,w,c
  7917   001C10  020F               	mulwf	i2___flmul@b^0,c
  7918   001C12  CFF3 F026          	movff	prodl,i2___flmul@temp
  7919   001C16  CFF4 F027          	movff	prodh,i2___flmul@temp+1
  7920   001C1A  5026               	movf	i2___flmul@temp^0,w,c
  7921   001C1C  6E1C               	movwf	i2___flmul@grs^0,c
  7922   001C1E  6A1D               	clrf	(i2___flmul@grs+1)^0,c
  7923   001C20  6A1E               	clrf	(i2___flmul@grs+2)^0,c
  7924   001C22  6A1F               	clrf	(i2___flmul@grs+3)^0,c
  7925   001C24  5027               	movf	(i2___flmul@temp+1)^0,w,c
  7926   001C26  6E22               	movwf	i2___flmul@prod^0,c
  7927   001C28  6A23               	clrf	(i2___flmul@prod+1)^0,c
  7928   001C2A  6A24               	clrf	(i2___flmul@prod+2)^0,c
  7929   001C2C  6A25               	clrf	(i2___flmul@prod+3)^0,c
  7930   001C2E  5014               	movf	(i2___flmul@a+1)^0,w,c
  7931   001C30  0210               	mulwf	(i2___flmul@b+1)^0,c
  7932   001C32  CFF3 F026          	movff	prodl,i2___flmul@temp
  7933   001C36  CFF4 F027          	movff	prodh,i2___flmul@temp+1
  7934   001C3A  5026               	movf	i2___flmul@temp^0,w,c
  7935   001C3C  261C               	addwf	i2___flmul@grs^0,f,c
  7936   001C3E  0E00               	movlw	0
  7937   001C40  221D               	addwfc	(i2___flmul@grs+1)^0,f,c
  7938   001C42  221E               	addwfc	(i2___flmul@grs+2)^0,f,c
  7939   001C44  221F               	addwfc	(i2___flmul@grs+3)^0,f,c
  7940   001C46  5027               	movf	(i2___flmul@temp+1)^0,w,c
  7941   001C48  2622               	addwf	i2___flmul@prod^0,f,c
  7942   001C4A  0E00               	movlw	0
  7943   001C4C  2223               	addwfc	(i2___flmul@prod+1)^0,f,c
  7944   001C4E  2224               	addwfc	(i2___flmul@prod+2)^0,f,c
  7945   001C50  2225               	addwfc	(i2___flmul@prod+3)^0,f,c
  7946   001C52  5013               	movf	i2___flmul@a^0,w,c
  7947   001C54  0211               	mulwf	(i2___flmul@b+2)^0,c
  7948   001C56  CFF3 F026          	movff	prodl,i2___flmul@temp
  7949   001C5A  CFF4 F027          	movff	prodh,i2___flmul@temp+1
  7950   001C5E  5026               	movf	i2___flmul@temp^0,w,c
  7951   001C60  261C               	addwf	i2___flmul@grs^0,f,c
  7952   001C62  0E00               	movlw	0
  7953   001C64  221D               	addwfc	(i2___flmul@grs+1)^0,f,c
  7954   001C66  221E               	addwfc	(i2___flmul@grs+2)^0,f,c
  7955   001C68  221F               	addwfc	(i2___flmul@grs+3)^0,f,c
  7956   001C6A  5027               	movf	(i2___flmul@temp+1)^0,w,c
  7957   001C6C  2622               	addwf	i2___flmul@prod^0,f,c
  7958   001C6E  0E00               	movlw	0
  7959   001C70  2223               	addwfc	(i2___flmul@prod+1)^0,f,c
  7960   001C72  2224               	addwfc	(i2___flmul@prod+2)^0,f,c
  7961   001C74  2225               	addwfc	(i2___flmul@prod+3)^0,f,c
  7962   001C76  C01E  F01F         	movff	i2___flmul@grs+2,i2___flmul@grs+3
  7963   001C7A  C01D  F01E         	movff	i2___flmul@grs+1,i2___flmul@grs+2
  7964   001C7E  C01C  F01D         	movff	i2___flmul@grs,i2___flmul@grs+1
  7965   001C82  6A1C               	clrf	i2___flmul@grs^0,c
  7966   001C84  5013               	movf	i2___flmul@a^0,w,c
  7967   001C86  0210               	mulwf	(i2___flmul@b+1)^0,c
  7968   001C88  CFF3 F026          	movff	prodl,i2___flmul@temp
  7969   001C8C  CFF4 F027          	movff	prodh,i2___flmul@temp+1
  7970   001C90  5026               	movf	i2___flmul@temp^0,w,c
  7971   001C92  261C               	addwf	i2___flmul@grs^0,f,c
  7972   001C94  5027               	movf	(i2___flmul@temp+1)^0,w,c
  7973   001C96  221D               	addwfc	(i2___flmul@grs+1)^0,f,c
  7974   001C98  0E00               	movlw	0
  7975   001C9A  221E               	addwfc	(i2___flmul@grs+2)^0,f,c
  7976   001C9C  0E00               	movlw	0
  7977   001C9E  221F               	addwfc	(i2___flmul@grs+3)^0,f,c
  7978   001CA0  5014               	movf	(i2___flmul@a+1)^0,w,c
  7979   001CA2  020F               	mulwf	i2___flmul@b^0,c
  7980   001CA4  CFF3 F026          	movff	prodl,i2___flmul@temp
  7981   001CA8  CFF4 F027          	movff	prodh,i2___flmul@temp+1
  7982   001CAC  5026               	movf	i2___flmul@temp^0,w,c
  7983   001CAE  261C               	addwf	i2___flmul@grs^0,f,c
  7984   001CB0  5027               	movf	(i2___flmul@temp+1)^0,w,c
  7985   001CB2  221D               	addwfc	(i2___flmul@grs+1)^0,f,c
  7986   001CB4  0E00               	movlw	0
  7987   001CB6  221E               	addwfc	(i2___flmul@grs+2)^0,f,c
  7988   001CB8  0E00               	movlw	0
  7989   001CBA  221F               	addwfc	(i2___flmul@grs+3)^0,f,c
  7990   001CBC  C01E  F01F         	movff	i2___flmul@grs+2,i2___flmul@grs+3
  7991   001CC0  C01D  F01E         	movff	i2___flmul@grs+1,i2___flmul@grs+2
  7992   001CC4  C01C  F01D         	movff	i2___flmul@grs,i2___flmul@grs+1
  7993   001CC8  6A1C               	clrf	i2___flmul@grs^0,c
  7994   001CCA  5013               	movf	i2___flmul@a^0,w,c
  7995   001CCC  020F               	mulwf	i2___flmul@b^0,c
  7996   001CCE  CFF3 F026          	movff	prodl,i2___flmul@temp
  7997   001CD2  CFF4 F027          	movff	prodh,i2___flmul@temp+1
  7998   001CD6  5026               	movf	i2___flmul@temp^0,w,c
  7999   001CD8  261C               	addwf	i2___flmul@grs^0,f,c
  8000   001CDA  5027               	movf	(i2___flmul@temp+1)^0,w,c
  8001   001CDC  221D               	addwfc	(i2___flmul@grs+1)^0,f,c
  8002   001CDE  0E00               	movlw	0
  8003   001CE0  221E               	addwfc	(i2___flmul@grs+2)^0,f,c
  8004   001CE2  0E00               	movlw	0
  8005   001CE4  221F               	addwfc	(i2___flmul@grs+3)^0,f,c
  8006   001CE6  5015               	movf	(i2___flmul@a+2)^0,w,c
  8007   001CE8  0210               	mulwf	(i2___flmul@b+1)^0,c
  8008   001CEA  CFF3 F026          	movff	prodl,i2___flmul@temp
  8009   001CEE  CFF4 F027          	movff	prodh,i2___flmul@temp+1
  8010   001CF2  5026               	movf	i2___flmul@temp^0,w,c
  8011   001CF4  2622               	addwf	i2___flmul@prod^0,f,c
  8012   001CF6  5027               	movf	(i2___flmul@temp+1)^0,w,c
  8013   001CF8  2223               	addwfc	(i2___flmul@prod+1)^0,f,c
  8014   001CFA  0E00               	movlw	0
  8015   001CFC  2224               	addwfc	(i2___flmul@prod+2)^0,f,c
  8016   001CFE  0E00               	movlw	0
  8017   001D00  2225               	addwfc	(i2___flmul@prod+3)^0,f,c
  8018   001D02  5014               	movf	(i2___flmul@a+1)^0,w,c
  8019   001D04  0211               	mulwf	(i2___flmul@b+2)^0,c
  8020   001D06  CFF3 F026          	movff	prodl,i2___flmul@temp
  8021   001D0A  CFF4 F027          	movff	prodh,i2___flmul@temp+1
  8022   001D0E  5026               	movf	i2___flmul@temp^0,w,c
  8023   001D10  2622               	addwf	i2___flmul@prod^0,f,c
  8024   001D12  5027               	movf	(i2___flmul@temp+1)^0,w,c
  8025   001D14  2223               	addwfc	(i2___flmul@prod+1)^0,f,c
  8026   001D16  0E00               	movlw	0
  8027   001D18  2224               	addwfc	(i2___flmul@prod+2)^0,f,c
  8028   001D1A  0E00               	movlw	0
  8029   001D1C  2225               	addwfc	(i2___flmul@prod+3)^0,f,c
  8030   001D1E  5015               	movf	(i2___flmul@a+2)^0,w,c
  8031   001D20  0211               	mulwf	(i2___flmul@b+2)^0,c
  8032   001D22  CFF3 F026          	movff	prodl,i2___flmul@temp
  8033   001D26  CFF4 F027          	movff	prodh,i2___flmul@temp+1
  8034   001D2A  5026               	movf	i2___flmul@temp^0,w,c
  8035   001D2C  6E17               	movwf	??i2___flmul^0,c
  8036   001D2E  5027               	movf	(i2___flmul@temp+1)^0,w,c
  8037   001D30  6E18               	movwf	(??i2___flmul+1)^0,c
  8038   001D32  6A19               	clrf	(??i2___flmul+2)^0,c
  8039   001D34  6A1A               	clrf	(??i2___flmul+3)^0,c
  8040   001D36  C019  F01A         	movff	??i2___flmul+2,??i2___flmul+3
  8041   001D3A  C018  F019         	movff	??i2___flmul+1,??i2___flmul+2
  8042   001D3E  C017  F018         	movff	??i2___flmul,??i2___flmul+1
  8043   001D42  6A17               	clrf	??i2___flmul^0,c
  8044   001D44  5017               	movf	??i2___flmul^0,w,c
  8045   001D46  2622               	addwf	i2___flmul@prod^0,f,c
  8046   001D48  5018               	movf	(??i2___flmul+1)^0,w,c
  8047   001D4A  2223               	addwfc	(i2___flmul@prod+1)^0,f,c
  8048   001D4C  5019               	movf	(??i2___flmul+2)^0,w,c
  8049   001D4E  2224               	addwfc	(i2___flmul@prod+2)^0,f,c
  8050   001D50  501A               	movf	(??i2___flmul+3)^0,w,c
  8051   001D52  2225               	addwfc	(i2___flmul@prod+3)^0,f,c
  8052   001D54  C01C  F017         	movff	i2___flmul@grs,??i2___flmul
  8053   001D58  C01D  F018         	movff	i2___flmul@grs+1,??i2___flmul+1
  8054   001D5C  C01E  F019         	movff	i2___flmul@grs+2,??i2___flmul+2
  8055   001D60  C01F  F01A         	movff	i2___flmul@grs+3,??i2___flmul+3
  8056   001D64  0E19               	movlw	25
  8057   001D66  EFBA  F00E         	goto	i2u379_40
  8058   001D6A                     i2u379_45:
  8059   001D6A  90D8               	bcf	status,0,c
  8060   001D6C  321A               	rrcf	(??i2___flmul+3)^0,f,c
  8061   001D6E  3219               	rrcf	(??i2___flmul+2)^0,f,c
  8062   001D70  3218               	rrcf	(??i2___flmul+1)^0,f,c
  8063   001D72  3217               	rrcf	??i2___flmul^0,f,c
  8064   001D74                     i2u379_40:
  8065   001D74  2EE8               	decfsz	wreg,f,c
  8066   001D76  EFB5  F00E         	goto	i2u379_45
  8067   001D7A  5017               	movf	??i2___flmul^0,w,c
  8068   001D7C  2622               	addwf	i2___flmul@prod^0,f,c
  8069   001D7E  5018               	movf	(??i2___flmul+1)^0,w,c
  8070   001D80  2223               	addwfc	(i2___flmul@prod+1)^0,f,c
  8071   001D82  5019               	movf	(??i2___flmul+2)^0,w,c
  8072   001D84  2224               	addwfc	(i2___flmul@prod+2)^0,f,c
  8073   001D86  501A               	movf	(??i2___flmul+3)^0,w,c
  8074   001D88  2225               	addwfc	(i2___flmul@prod+3)^0,f,c
  8075   001D8A  C01E  F01F         	movff	i2___flmul@grs+2,i2___flmul@grs+3
  8076   001D8E  C01D  F01E         	movff	i2___flmul@grs+1,i2___flmul@grs+2
  8077   001D92  C01C  F01D         	movff	i2___flmul@grs,i2___flmul@grs+1
  8078   001D96  6A1C               	clrf	i2___flmul@grs^0,c
  8079   001D98  5020               	movf	i2___flmul@aexp^0,w,c
  8080   001D9A  C021  F017         	movff	i2___flmul@bexp,??i2___flmul
  8081   001D9E  6A18               	clrf	(??i2___flmul+1)^0,c
  8082   001DA0  2617               	addwf	??i2___flmul^0,f,c
  8083   001DA2  0E00               	movlw	0
  8084   001DA4  2218               	addwfc	(??i2___flmul+1)^0,f,c
  8085   001DA6  0E82               	movlw	130
  8086   001DA8  2417               	addwf	??i2___flmul^0,w,c
  8087   001DAA  6E26               	movwf	i2___flmul@temp^0,c
  8088   001DAC  0EFF               	movlw	255
  8089   001DAE  2018               	addwfc	(??i2___flmul+1)^0,w,c
  8090   001DB0  6E27               	movwf	(i2___flmul@temp+1)^0,c
  8091   001DB2  EFF0  F00E         	goto	i2l3681
  8092   001DB6                     i2l3675:
  8093   001DB6  90D8               	bcf	status,0,c
  8094   001DB8  3622               	rlcf	i2___flmul@prod^0,f,c
  8095   001DBA  3623               	rlcf	(i2___flmul@prod+1)^0,f,c
  8096   001DBC  3624               	rlcf	(i2___flmul@prod+2)^0,f,c
  8097   001DBE  3625               	rlcf	(i2___flmul@prod+3)^0,f,c
  8098   001DC0  AE1F               	btfss	(i2___flmul@grs+3)^0,7,c
  8099   001DC2  EFE5  F00E         	goto	i2u380_41
  8100   001DC6  EFE7  F00E         	goto	i2u380_40
  8101   001DCA                     i2u380_41:
  8102   001DCA  EFE8  F00E         	goto	i2l742
  8103   001DCE                     i2u380_40:
  8104   001DCE  8022               	bsf	i2___flmul@prod^0,0,c
  8105   001DD0                     i2l742:
  8106   001DD0  90D8               	bcf	status,0,c
  8107   001DD2  361C               	rlcf	i2___flmul@grs^0,f,c
  8108   001DD4  361D               	rlcf	(i2___flmul@grs+1)^0,f,c
  8109   001DD6  361E               	rlcf	(i2___flmul@grs+2)^0,f,c
  8110   001DD8  361F               	rlcf	(i2___flmul@grs+3)^0,f,c
  8111   001DDA  0626               	decf	i2___flmul@temp^0,f,c
  8112   001DDC  A0D8               	btfss	status,0,c
  8113   001DDE  0627               	decf	(i2___flmul@temp+1)^0,f,c
  8114   001DE0                     i2l3681:
  8115   001DE0  AE24               	btfss	(i2___flmul@prod+2)^0,7,c
  8116   001DE2  EFF5  F00E         	goto	i2u381_41
  8117   001DE6  EFF7  F00E         	goto	i2u381_40
  8118   001DEA                     i2u381_41:
  8119   001DEA  EFDB  F00E         	goto	i2l3675
  8120   001DEE                     i2u381_40:
  8121   001DEE  0E00               	movlw	0
  8122   001DF0  6E20               	movwf	i2___flmul@aexp^0,c
  8123   001DF2  AE1F               	btfss	(i2___flmul@grs+3)^0,7,c
  8124   001DF4  EFFE  F00E         	goto	i2u382_41
  8125   001DF8  EF00  F00F         	goto	i2u382_40
  8126   001DFC                     i2u382_41:
  8127   001DFC  EF24  F00F         	goto	i2l744
  8128   001E00                     i2u382_40:
  8129   001E00  0EFF               	movlw	255
  8130   001E02  141C               	andwf	i2___flmul@grs^0,w,c
  8131   001E04  6E17               	movwf	??i2___flmul^0,c
  8132   001E06  0EFF               	movlw	255
  8133   001E08  141D               	andwf	(i2___flmul@grs+1)^0,w,c
  8134   001E0A  6E18               	movwf	(??i2___flmul+1)^0,c
  8135   001E0C  0EFF               	movlw	255
  8136   001E0E  141E               	andwf	(i2___flmul@grs+2)^0,w,c
  8137   001E10  6E19               	movwf	(??i2___flmul+2)^0,c
  8138   001E12  0E7F               	movlw	127
  8139   001E14  141F               	andwf	(i2___flmul@grs+3)^0,w,c
  8140   001E16  6E1A               	movwf	(??i2___flmul+3)^0,c
  8141   001E18  5017               	movf	??i2___flmul^0,w,c
  8142   001E1A  1018               	iorwf	(??i2___flmul+1)^0,w,c
  8143   001E1C  1019               	iorwf	(??i2___flmul+2)^0,w,c
  8144   001E1E  101A               	iorwf	(??i2___flmul+3)^0,w,c
  8145   001E20  B4D8               	btfsc	status,2,c
  8146   001E22  EF15  F00F         	goto	i2u383_41
  8147   001E26  EF17  F00F         	goto	i2u383_40
  8148   001E2A                     i2u383_41:
  8149   001E2A  EF1B  F00F         	goto	i2l745
  8150   001E2E                     i2u383_40:
  8151   001E2E                     i2l3689:
  8152   001E2E  0E01               	movlw	1
  8153   001E30  6E20               	movwf	i2___flmul@aexp^0,c
  8154   001E32  EF24  F00F         	goto	i2l744
  8155   001E36                     i2l745:
  8156   001E36  A022               	btfss	i2___flmul@prod^0,0,c
  8157   001E38  EF20  F00F         	goto	i2u384_41
  8158   001E3C  EF22  F00F         	goto	i2u384_40
  8159   001E40                     i2u384_41:
  8160   001E40  EF24  F00F         	goto	i2l744
  8161   001E44                     i2u384_40:
  8162   001E44  EF17  F00F         	goto	i2l3689
  8163   001E48                     i2l744:
  8164   001E48  5020               	movf	i2___flmul@aexp^0,w,c
  8165   001E4A  B4D8               	btfsc	status,2,c
  8166   001E4C  EF2A  F00F         	goto	i2u385_41
  8167   001E50  EF2C  F00F         	goto	i2u385_40
  8168   001E54                     i2u385_41:
  8169   001E54  EF50  F00F         	goto	i2l3701
  8170   001E58                     i2u385_40:
  8171   001E58  0E01               	movlw	1
  8172   001E5A  2622               	addwf	i2___flmul@prod^0,f,c
  8173   001E5C  0E00               	movlw	0
  8174   001E5E  2223               	addwfc	(i2___flmul@prod+1)^0,f,c
  8175   001E60  2224               	addwfc	(i2___flmul@prod+2)^0,f,c
  8176   001E62  2225               	addwfc	(i2___flmul@prod+3)^0,f,c
  8177   001E64  A025               	btfss	(i2___flmul@prod+3)^0,0,c
  8178   001E66  EF37  F00F         	goto	i2u386_41
  8179   001E6A  EF39  F00F         	goto	i2u386_40
  8180   001E6E                     i2u386_41:
  8181   001E6E  EF50  F00F         	goto	i2l3701
  8182   001E72                     i2u386_40:
  8183   001E72  C022  F017         	movff	i2___flmul@prod,??i2___flmul
  8184   001E76  C023  F018         	movff	i2___flmul@prod+1,??i2___flmul+1
  8185   001E7A  C024  F019         	movff	i2___flmul@prod+2,??i2___flmul+2
  8186   001E7E  C025  F01A         	movff	i2___flmul@prod+3,??i2___flmul+3
  8187   001E82  341A               	rlcf	(??i2___flmul+3)^0,w,c
  8188   001E84  321A               	rrcf	(??i2___flmul+3)^0,f,c
  8189   001E86  3219               	rrcf	(??i2___flmul+2)^0,f,c
  8190   001E88  3218               	rrcf	(??i2___flmul+1)^0,f,c
  8191   001E8A  3217               	rrcf	??i2___flmul^0,f,c
  8192   001E8C  C017  F022         	movff	??i2___flmul,i2___flmul@prod
  8193   001E90  C018  F023         	movff	??i2___flmul+1,i2___flmul@prod+1
  8194   001E94  C019  F024         	movff	??i2___flmul+2,i2___flmul@prod+2
  8195   001E98  C01A  F025         	movff	??i2___flmul+3,i2___flmul@prod+3
  8196   001E9C  4A26               	infsnz	i2___flmul@temp^0,f,c
  8197   001E9E  2A27               	incf	(i2___flmul@temp+1)^0,f,c
  8198   001EA0                     i2l3701:
  8199   001EA0  BE27               	btfsc	(i2___flmul@temp+1)^0,7,c
  8200   001EA2  EF5B  F00F         	goto	i2u387_41
  8201   001EA6  5027               	movf	(i2___flmul@temp+1)^0,w,c
  8202   001EA8  E108               	bnz	i2u387_40
  8203   001EAA  2826               	incf	i2___flmul@temp^0,w,c
  8204   001EAC  A0D8               	btfss	status,0,c
  8205   001EAE  EF5B  F00F         	goto	i2u387_41
  8206   001EB2  EF5D  F00F         	goto	i2u387_40
  8207   001EB6                     i2u387_41:
  8208   001EB6  EF67  F00F         	goto	i2l3705
  8209   001EBA                     i2u387_40:
  8210   001EBA  0E00               	movlw	0
  8211   001EBC  6E22               	movwf	i2___flmul@prod^0,c
  8212   001EBE  0E00               	movlw	0
  8213   001EC0  6E23               	movwf	(i2___flmul@prod+1)^0,c
  8214   001EC2  0E80               	movlw	128
  8215   001EC4  6E24               	movwf	(i2___flmul@prod+2)^0,c
  8216   001EC6  0E7F               	movlw	127
  8217   001EC8  6E25               	movwf	(i2___flmul@prod+3)^0,c
  8218   001ECA  EF95  F00F         	goto	i2l3717
  8219   001ECE                     i2l3705:
  8220   001ECE  BE27               	btfsc	(i2___flmul@temp+1)^0,7,c
  8221   001ED0  EF74  F00F         	goto	i2u388_40
  8222   001ED4  5027               	movf	(i2___flmul@temp+1)^0,w,c
  8223   001ED6  E106               	bnz	i2u388_41
  8224   001ED8  0426               	decf	i2___flmul@temp^0,w,c
  8225   001EDA  B0D8               	btfsc	status,0,c
  8226   001EDC  EF72  F00F         	goto	i2u388_41
  8227   001EE0  EF74  F00F         	goto	i2u388_40
  8228   001EE4                     i2u388_41:
  8229   001EE4  EF80  F00F         	goto	i2l752
  8230   001EE8                     i2u388_40:
  8231   001EE8  0E00               	movlw	0
  8232   001EEA  6E22               	movwf	i2___flmul@prod^0,c
  8233   001EEC  0E00               	movlw	0
  8234   001EEE  6E23               	movwf	(i2___flmul@prod+1)^0,c
  8235   001EF0  0E00               	movlw	0
  8236   001EF2  6E24               	movwf	(i2___flmul@prod+2)^0,c
  8237   001EF4  0E00               	movlw	0
  8238   001EF6  6E25               	movwf	(i2___flmul@prod+3)^0,c
  8239   001EF8  0E00               	movlw	0
  8240   001EFA  6E1B               	movwf	i2___flmul@sign^0,c
  8241   001EFC  EF95  F00F         	goto	i2l3717
  8242   001F00                     i2l752:
  8243   001F00  C026  F021         	movff	i2___flmul@temp,i2___flmul@bexp
  8244   001F04  0EFF               	movlw	255
  8245   001F06  1622               	andwf	i2___flmul@prod^0,f,c
  8246   001F08  0EFF               	movlw	255
  8247   001F0A  1623               	andwf	(i2___flmul@prod+1)^0,f,c
  8248   001F0C  0E7F               	movlw	127
  8249   001F0E  1624               	andwf	(i2___flmul@prod+2)^0,f,c
  8250   001F10  0E00               	movlw	0
  8251   001F12  1625               	andwf	(i2___flmul@prod+3)^0,f,c
  8252   001F14  A021               	btfss	i2___flmul@bexp^0,0,c
  8253   001F16  EF8F  F00F         	goto	i2u389_41
  8254   001F1A  EF91  F00F         	goto	i2u389_40
  8255   001F1E                     i2u389_41:
  8256   001F1E  EF92  F00F         	goto	i2l3715
  8257   001F22                     i2u389_40:
  8258   001F22  8E24               	bsf	(i2___flmul@prod+2)^0,7,c
  8259   001F24                     i2l3715:
  8260   001F24  90D8               	bcf	status,0,c
  8261   001F26  3021               	rrcf	i2___flmul@bexp^0,w,c
  8262   001F28  6E25               	movwf	(i2___flmul@prod+3)^0,c
  8263   001F2A                     i2l3717:
  8264   001F2A  501B               	movf	i2___flmul@sign^0,w,c
  8265   001F2C  1225               	iorwf	(i2___flmul@prod+3)^0,f,c
  8266   001F2E  C022  F00F         	movff	i2___flmul@prod,?i2___flmul
  8267   001F32  C023  F010         	movff	i2___flmul@prod+1,?i2___flmul+1
  8268   001F36  C024  F011         	movff	i2___flmul@prod+2,?i2___flmul+2
  8269   001F3A  C025  F012         	movff	i2___flmul@prod+3,?i2___flmul+3
  8270   001F3E                     i2l739:
  8271   001F3E  0012               	return		;funcret
  8272   001F40                     __end_ofi2___flmul:
  8273                           	callstack 0
  8274                           
  8275 ;; *************** function ___xxtofl *****************
  8276 ;; Defined at:
  8277 ;;		line 10 in file "C:\Program Files\Microchip\xc8\v2.40\pic\sources\c99\common\xxtofl.c"
  8278 ;; Parameters:    Size  Location     Type
  8279 ;;  sign            1    wreg     unsigned char 
  8280 ;;  val             4    0[COMRAM] long 
  8281 ;; Auto vars:     Size  Location     Type
  8282 ;;  sign            1    8[COMRAM] unsigned char 
  8283 ;;  arg             4   10[COMRAM] unsigned long 
  8284 ;;  exp             1    9[COMRAM] unsigned char 
  8285 ;; Return value:  Size  Location     Type
  8286 ;;                  4    0[COMRAM] unsigned char 
  8287 ;; Registers used:
  8288 ;;		wreg, status,2, status,0
  8289 ;; Tracked objects:
  8290 ;;		On entry : 0/0
  8291 ;;		On exit  : 0/0
  8292 ;;		Unchanged: 0/0
  8293 ;; Data sizes:     COMRAM   BANK0   BANK1   BANK2   BANK3   BANK4   BANK5   BANK6   BANK7
  8294 ;;      Params:         4       0       0       0       0       0       0       0       0
  8295 ;;      Locals:         6       0       0       0       0       0       0       0       0
  8296 ;;      Temps:          4       0       0       0       0       0       0       0       0
  8297 ;;      Totals:        14       0       0       0       0       0       0       0       0
  8298 ;;Total ram usage:       14 bytes
  8299 ;; Hardware stack levels used: 1
  8300 ;; This function calls:
  8301 ;;		Nothing
  8302 ;; This function is called by:
  8303 ;;		_captura
  8304 ;; This function uses a non-reentrant model
  8305 ;;
  8306                           
  8307                           	psect	text34
  8308   00270C                     __ptext34:
  8309                           	callstack 0
  8310   00270C                     ___xxtofl:
  8311                           	callstack 21
  8312                           
  8313                           ;incstack = 0
  8314                           ;___xxtofl@sign stored from wreg
  8315   00270C  6E09               	movwf	___xxtofl@sign^0,c
  8316   00270E  5009               	movf	___xxtofl@sign^0,w,c
  8317   002710  B4D8               	btfsc	status,2,c
  8318   002712  EF8D  F013         	goto	i2u361_41
  8319   002716  EF8F  F013         	goto	i2u361_40
  8320   00271A                     i2u361_41:
  8321   00271A  EFB1  F013         	goto	i2l776
  8322   00271E                     i2u361_40:
  8323   00271E  BE04               	btfsc	(___xxtofl@val+3)^0,7,c
  8324   002720  EF96  F013         	goto	i2u362_40
  8325   002724  EF94  F013         	goto	i2u362_41
  8326   002728                     i2u362_41:
  8327   002728  EFB1  F013         	goto	i2l776
  8328   00272C                     i2u362_40:
  8329   00272C  C001  F005         	movff	___xxtofl@val,??___xxtofl
  8330   002730  C002  F006         	movff	___xxtofl@val+1,??___xxtofl+1
  8331   002734  C003  F007         	movff	___xxtofl@val+2,??___xxtofl+2
  8332   002738  C004  F008         	movff	___xxtofl@val+3,??___xxtofl+3
  8333   00273C  1E05               	comf	??___xxtofl^0,f,c
  8334   00273E  1E06               	comf	(??___xxtofl+1)^0,f,c
  8335   002740  1E07               	comf	(??___xxtofl+2)^0,f,c
  8336   002742  1E08               	comf	(??___xxtofl+3)^0,f,c
  8337   002744  2A05               	incf	??___xxtofl^0,f,c
  8338   002746  0E00               	movlw	0
  8339   002748  2206               	addwfc	(??___xxtofl+1)^0,f,c
  8340   00274A  2207               	addwfc	(??___xxtofl+2)^0,f,c
  8341   00274C  2208               	addwfc	(??___xxtofl+3)^0,f,c
  8342   00274E  C005  F00B         	movff	??___xxtofl,___xxtofl@arg
  8343   002752  C006  F00C         	movff	??___xxtofl+1,___xxtofl@arg+1
  8344   002756  C007  F00D         	movff	??___xxtofl+2,___xxtofl@arg+2
  8345   00275A  C008  F00E         	movff	??___xxtofl+3,___xxtofl@arg+3
  8346   00275E  EFB9  F013         	goto	i2l3553
  8347   002762                     i2l776:
  8348   002762  C001  F00B         	movff	___xxtofl@val,___xxtofl@arg
  8349   002766  C002  F00C         	movff	___xxtofl@val+1,___xxtofl@arg+1
  8350   00276A  C003  F00D         	movff	___xxtofl@val+2,___xxtofl@arg+2
  8351   00276E  C004  F00E         	movff	___xxtofl@val+3,___xxtofl@arg+3
  8352   002772                     i2l3553:
  8353   002772  5001               	movf	___xxtofl@val^0,w,c
  8354   002774  1002               	iorwf	(___xxtofl@val+1)^0,w,c
  8355   002776  1003               	iorwf	(___xxtofl@val+2)^0,w,c
  8356   002778  1004               	iorwf	(___xxtofl@val+3)^0,w,c
  8357   00277A  A4D8               	btfss	status,2,c
  8358   00277C  EFC2  F013         	goto	i2u363_41
  8359   002780  EFC4  F013         	goto	i2u363_40
  8360   002784                     i2u363_41:
  8361   002784  EFCE  F013         	goto	i2l3559
  8362   002788                     i2u363_40:
  8363   002788  0E00               	movlw	0
  8364   00278A  6E01               	movwf	?___xxtofl^0,c
  8365   00278C  0E00               	movlw	0
  8366   00278E  6E02               	movwf	(?___xxtofl+1)^0,c
  8367   002790  0E00               	movlw	0
  8368   002792  6E03               	movwf	(?___xxtofl+2)^0,c
  8369   002794  0E00               	movlw	0
  8370   002796  6E04               	movwf	(?___xxtofl+3)^0,c
  8371   002798  EF5F  F014         	goto	i2l779
  8372   00279C                     i2l3559:
  8373   00279C  0E96               	movlw	150
  8374   00279E  6E0A               	movwf	___xxtofl@exp^0,c
  8375   0027A0  EFD8  F013         	goto	i2l3563
  8376   0027A4                     i2l3561:
  8377   0027A4  2A0A               	incf	___xxtofl@exp^0,f,c
  8378   0027A6  90D8               	bcf	status,0,c
  8379   0027A8  320E               	rrcf	(___xxtofl@arg+3)^0,f,c
  8380   0027AA  320D               	rrcf	(___xxtofl@arg+2)^0,f,c
  8381   0027AC  320C               	rrcf	(___xxtofl@arg+1)^0,f,c
  8382   0027AE  320B               	rrcf	___xxtofl@arg^0,f,c
  8383   0027B0                     i2l3563:
  8384   0027B0  0E00               	movlw	0
  8385   0027B2  140B               	andwf	___xxtofl@arg^0,w,c
  8386   0027B4  6E05               	movwf	??___xxtofl^0,c
  8387   0027B6  0E00               	movlw	0
  8388   0027B8  140C               	andwf	(___xxtofl@arg+1)^0,w,c
  8389   0027BA  6E06               	movwf	(??___xxtofl+1)^0,c
  8390   0027BC  0E00               	movlw	0
  8391   0027BE  140D               	andwf	(___xxtofl@arg+2)^0,w,c
  8392   0027C0  6E07               	movwf	(??___xxtofl+2)^0,c
  8393   0027C2  0EFE               	movlw	254
  8394   0027C4  140E               	andwf	(___xxtofl@arg+3)^0,w,c
  8395   0027C6  6E08               	movwf	(??___xxtofl+3)^0,c
  8396   0027C8  5005               	movf	??___xxtofl^0,w,c
  8397   0027CA  1006               	iorwf	(??___xxtofl+1)^0,w,c
  8398   0027CC  1007               	iorwf	(??___xxtofl+2)^0,w,c
  8399   0027CE  1008               	iorwf	(??___xxtofl+3)^0,w,c
  8400   0027D0  A4D8               	btfss	status,2,c
  8401   0027D2  EFED  F013         	goto	i2u364_41
  8402   0027D6  EFEF  F013         	goto	i2u364_40
  8403   0027DA                     i2u364_41:
  8404   0027DA  EFD2  F013         	goto	i2l3561
  8405   0027DE                     i2u364_40:
  8406   0027DE  EFFD  F013         	goto	i2l783
  8407   0027E2                     i2l3565:
  8408   0027E2  2A0A               	incf	___xxtofl@exp^0,f,c
  8409   0027E4  0E01               	movlw	1
  8410   0027E6  260B               	addwf	___xxtofl@arg^0,f,c
  8411   0027E8  0E00               	movlw	0
  8412   0027EA  220C               	addwfc	(___xxtofl@arg+1)^0,f,c
  8413   0027EC  220D               	addwfc	(___xxtofl@arg+2)^0,f,c
  8414   0027EE  220E               	addwfc	(___xxtofl@arg+3)^0,f,c
  8415   0027F0  90D8               	bcf	status,0,c
  8416   0027F2  320E               	rrcf	(___xxtofl@arg+3)^0,f,c
  8417   0027F4  320D               	rrcf	(___xxtofl@arg+2)^0,f,c
  8418   0027F6  320C               	rrcf	(___xxtofl@arg+1)^0,f,c
  8419   0027F8  320B               	rrcf	___xxtofl@arg^0,f,c
  8420   0027FA                     i2l783:
  8421   0027FA  0E00               	movlw	0
  8422   0027FC  140B               	andwf	___xxtofl@arg^0,w,c
  8423   0027FE  6E05               	movwf	??___xxtofl^0,c
  8424   002800  0E00               	movlw	0
  8425   002802  140C               	andwf	(___xxtofl@arg+1)^0,w,c
  8426   002804  6E06               	movwf	(??___xxtofl+1)^0,c
  8427   002806  0E00               	movlw	0
  8428   002808  140D               	andwf	(___xxtofl@arg+2)^0,w,c
  8429   00280A  6E07               	movwf	(??___xxtofl+2)^0,c
  8430   00280C  0EFF               	movlw	255
  8431   00280E  140E               	andwf	(___xxtofl@arg+3)^0,w,c
  8432   002810  6E08               	movwf	(??___xxtofl+3)^0,c
  8433   002812  5005               	movf	??___xxtofl^0,w,c
  8434   002814  1006               	iorwf	(??___xxtofl+1)^0,w,c
  8435   002816  1007               	iorwf	(??___xxtofl+2)^0,w,c
  8436   002818  1008               	iorwf	(??___xxtofl+3)^0,w,c
  8437   00281A  A4D8               	btfss	status,2,c
  8438   00281C  EF12  F014         	goto	i2u365_41
  8439   002820  EF14  F014         	goto	i2u365_40
  8440   002824                     i2u365_41:
  8441   002824  EFF1  F013         	goto	i2l3565
  8442   002828                     i2u365_40:
  8443   002828  EF1C  F014         	goto	i2l3573
  8444   00282C                     i2l3571:
  8445   00282C  060A               	decf	___xxtofl@exp^0,f,c
  8446   00282E  90D8               	bcf	status,0,c
  8447   002830  360B               	rlcf	___xxtofl@arg^0,f,c
  8448   002832  360C               	rlcf	(___xxtofl@arg+1)^0,f,c
  8449   002834  360D               	rlcf	(___xxtofl@arg+2)^0,f,c
  8450   002836  360E               	rlcf	(___xxtofl@arg+3)^0,f,c
  8451   002838                     i2l3573:
  8452   002838  BE0D               	btfsc	(___xxtofl@arg+2)^0,7,c
  8453   00283A  EF21  F014         	goto	i2u366_41
  8454   00283E  EF23  F014         	goto	i2u366_40
  8455   002842                     i2u366_41:
  8456   002842  EF2B  F014         	goto	i2l790
  8457   002846                     i2u366_40:
  8458   002846  0E02               	movlw	2
  8459   002848  600A               	cpfslt	___xxtofl@exp^0,c
  8460   00284A  EF29  F014         	goto	i2u367_41
  8461   00284E  EF2B  F014         	goto	i2u367_40
  8462   002852                     i2u367_41:
  8463   002852  EF16  F014         	goto	i2l3571
  8464   002856                     i2u367_40:
  8465   002856                     i2l790:
  8466   002856  B00A               	btfsc	___xxtofl@exp^0,0,c
  8467   002858  EF30  F014         	goto	i2u368_41
  8468   00285C  EF32  F014         	goto	i2u368_40
  8469   002860                     i2u368_41:
  8470   002860  EF33  F014         	goto	i2l3579
  8471   002864                     i2u368_40:
  8472   002864  9E0D               	bcf	(___xxtofl@arg+2)^0,7,c
  8473   002866                     i2l3579:
  8474   002866  90D8               	bcf	status,0,c
  8475   002868  320A               	rrcf	___xxtofl@exp^0,f,c
  8476   00286A  C00A  F005         	movff	___xxtofl@exp,??___xxtofl
  8477   00286E  6A06               	clrf	(??___xxtofl+1)^0,c
  8478   002870  6A07               	clrf	(??___xxtofl+2)^0,c
  8479   002872  6A08               	clrf	(??___xxtofl+3)^0,c
  8480   002874  C005  F008         	movff	??___xxtofl,??___xxtofl+3
  8481   002878  6A07               	clrf	(??___xxtofl+2)^0,c
  8482   00287A  6A06               	clrf	(??___xxtofl+1)^0,c
  8483   00287C  6A05               	clrf	??___xxtofl^0,c
  8484   00287E  5005               	movf	??___xxtofl^0,w,c
  8485   002880  120B               	iorwf	___xxtofl@arg^0,f,c
  8486   002882  5006               	movf	(??___xxtofl+1)^0,w,c
  8487   002884  120C               	iorwf	(___xxtofl@arg+1)^0,f,c
  8488   002886  5007               	movf	(??___xxtofl+2)^0,w,c
  8489   002888  120D               	iorwf	(___xxtofl@arg+2)^0,f,c
  8490   00288A  5008               	movf	(??___xxtofl+3)^0,w,c
  8491   00288C  120E               	iorwf	(___xxtofl@arg+3)^0,f,c
  8492   00288E  5009               	movf	___xxtofl@sign^0,w,c
  8493   002890  B4D8               	btfsc	status,2,c
  8494   002892  EF4D  F014         	goto	i2u369_41
  8495   002896  EF4F  F014         	goto	i2u369_40
  8496   00289A                     i2u369_41:
  8497   00289A  EF57  F014         	goto	i2l3589
  8498   00289E                     i2u369_40:
  8499   00289E  BE04               	btfsc	(___xxtofl@val+3)^0,7,c
  8500   0028A0  EF56  F014         	goto	i2u370_40
  8501   0028A4  EF54  F014         	goto	i2u370_41
  8502   0028A8                     i2u370_41:
  8503   0028A8  EF57  F014         	goto	i2l3589
  8504   0028AC                     i2u370_40:
  8505   0028AC  8E0E               	bsf	(___xxtofl@arg+3)^0,7,c
  8506   0028AE                     i2l3589:
  8507   0028AE  C00B  F001         	movff	___xxtofl@arg,?___xxtofl
  8508   0028B2  C00C  F002         	movff	___xxtofl@arg+1,?___xxtofl+1
  8509   0028B6  C00D  F003         	movff	___xxtofl@arg+2,?___xxtofl+2
  8510   0028BA  C00E  F004         	movff	___xxtofl@arg+3,?___xxtofl+3
  8511   0028BE                     i2l779:
  8512   0028BE  0012               	return		;funcret
  8513   0028C0                     __end_of___xxtofl:
  8514                           	callstack 0
  8515                           
  8516                           	psect	rparam
  8517   000000                     
  8518                           	psect	temp
  8519   000046                     btemp:
  8520                           	callstack 0
  8521   000046                     	ds	1
  8522   000000                     int$flags	set	btemp
  8523   000000                     wtemp8	set	btemp+1
  8524   000000                     ttemp5	set	btemp+1
  8525   000000                     ttemp6	set	btemp+4
  8526   000000                     ttemp7	set	btemp+8
  8527                           
  8528                           	psect	idloc
  8529                           
  8530                           ;Config register IDLOC0 @ 0x200000
  8531                           ;	unspecified, using default values
  8532   200000                     	org	2097152
  8533   200000  FF                 	db	255
  8534                           
  8535                           ;Config register IDLOC1 @ 0x200001
  8536                           ;	unspecified, using default values
  8537   200001                     	org	2097153
  8538   200001  FF                 	db	255
  8539                           
  8540                           ;Config register IDLOC2 @ 0x200002
  8541                           ;	unspecified, using default values
  8542   200002                     	org	2097154
  8543   200002  FF                 	db	255
  8544                           
  8545                           ;Config register IDLOC3 @ 0x200003
  8546                           ;	unspecified, using default values
  8547   200003                     	org	2097155
  8548   200003  FF                 	db	255
  8549                           
  8550                           ;Config register IDLOC4 @ 0x200004
  8551                           ;	unspecified, using default values
  8552   200004                     	org	2097156
  8553   200004  FF                 	db	255
  8554                           
  8555                           ;Config register IDLOC5 @ 0x200005
  8556                           ;	unspecified, using default values
  8557   200005                     	org	2097157
  8558   200005  FF                 	db	255
  8559                           
  8560                           ;Config register IDLOC6 @ 0x200006
  8561                           ;	unspecified, using default values
  8562   200006                     	org	2097158
  8563   200006  FF                 	db	255
  8564                           
  8565                           ;Config register IDLOC7 @ 0x200007
  8566                           ;	unspecified, using default values
  8567   200007                     	org	2097159
  8568   200007  FF                 	db	255
  8569                           
  8570                           	psect	config
  8571                           
  8572                           ;Config register CONFIG1L @ 0x300000
  8573                           ;	PLL Prescaler Selection bits
  8574                           ;	PLLDIV = 1, No prescale (4 MHz oscillator input drives PLL directly)
  8575                           ;	System Clock Postscaler Selection bits
  8576                           ;	CPUDIV = OSC1_PLL2, [Primary Oscillator Src: /1][96 MHz PLL Src: /2]
  8577                           ;	USB Clock Selection bit (used in Full-Speed USB mode only; UCFG:FSEN = 1)
  8578                           ;	USBDIV = 1, USB clock source comes directly from the primary oscillator block with no 
      +                          postscale
  8579   300000                     	org	3145728
  8580   300000  00                 	db	0
  8581                           
  8582                           ;Config register CONFIG1H @ 0x300001
  8583                           ;	Oscillator Selection bits
  8584                           ;	FOSC = XT_XT, XT oscillator (XT)
  8585                           ;	Fail-Safe Clock Monitor Enable bit
  8586                           ;	FCMEN = OFF, Fail-Safe Clock Monitor disabled
  8587                           ;	Internal/External Oscillator Switchover bit
  8588                           ;	IESO = OFF, Oscillator Switchover mode disabled
  8589   300001                     	org	3145729
  8590   300001  00                 	db	0
  8591                           
  8592                           ;Config register CONFIG2L @ 0x300002
  8593                           ;	Power-up Timer Enable bit
  8594                           ;	PWRT = ON, PWRT enabled
  8595                           ;	Brown-out Reset Enable bits
  8596                           ;	BOR = OFF, Brown-out Reset disabled in hardware and software
  8597                           ;	Brown-out Reset Voltage bits
  8598                           ;	BORV = 3, Minimum setting 2.05V
  8599                           ;	USB Voltage Regulator Enable bit
  8600                           ;	VREGEN = OFF, USB voltage regulator disabled
  8601   300002                     	org	3145730
  8602   300002  18                 	db	24
  8603                           
  8604                           ;Config register CONFIG2H @ 0x300003
  8605                           ;	Watchdog Timer Enable bit
  8606                           ;	WDT = OFF, WDT disabled (control is placed on the SWDTEN bit)
  8607                           ;	Watchdog Timer Postscale Select bits
  8608                           ;	WDTPS = 32768, 1:32768
  8609   300003                     	org	3145731
  8610   300003  1E                 	db	30
  8611                           
  8612                           ; Padding undefined space
  8613   300004                     	org	3145732
  8614   300004  FF                 	db	255
  8615                           
  8616                           ;Config register CONFIG3H @ 0x300005
  8617                           ;	CCP2 MUX bit
  8618                           ;	CCP2MX = ON, CCP2 input/output is multiplexed with RC1
  8619                           ;	PORTB A/D Enable bit
  8620                           ;	PBADEN = OFF, PORTB<4:0> pins are configured as digital I/O on Reset
  8621                           ;	Low-Power Timer 1 Oscillator Enable bit
  8622                           ;	LPT1OSC = OFF, Timer1 configured for higher power operation
  8623                           ;	MCLR Pin Enable bit
  8624                           ;	MCLRE = ON, MCLR pin enabled; RE3 input pin disabled
  8625   300005                     	org	3145733
  8626   300005  81                 	db	129
  8627                           
  8628                           ;Config register CONFIG4L @ 0x300006
  8629                           ;	Stack Full/Underflow Reset Enable bit
  8630                           ;	STVREN = ON, Stack full/underflow will cause Reset
  8631                           ;	Single-Supply ICSP Enable bit
  8632                           ;	LVP = OFF, Single-Supply ICSP disabled
  8633                           ;	Dedicated In-Circuit Debug/Programming Port (ICPORT) Enable bit
  8634                           ;	ICPRT = OFF, ICPORT disabled
  8635                           ;	Extended Instruction Set Enable bit
  8636                           ;	XINST = OFF, Instruction set extension and Indexed Addressing mode disabled (Legacy mo
      +                          de)
  8637                           ;	Background Debugger Enable bit
  8638                           ;	DEBUG = 0x1, unprogrammed default
  8639   300006                     	org	3145734
  8640   300006  81                 	db	129
  8641                           
  8642                           ; Padding undefined space
  8643   300007                     	org	3145735
  8644   300007  FF                 	db	255
  8645                           
  8646                           ;Config register CONFIG5L @ 0x300008
  8647                           ;	Code Protection bit
  8648                           ;	CP0 = OFF, Block 0 (000800-001FFFh) is not code-protected
  8649                           ;	Code Protection bit
  8650                           ;	CP1 = OFF, Block 1 (002000-003FFFh) is not code-protected
  8651                           ;	Code Protection bit
  8652                           ;	CP2 = OFF, Block 2 (004000-005FFFh) is not code-protected
  8653                           ;	Code Protection bit
  8654                           ;	CP3 = OFF, Block 3 (006000-007FFFh) is not code-protected
  8655   300008                     	org	3145736
  8656   300008  0F                 	db	15
  8657                           
  8658                           ;Config register CONFIG5H @ 0x300009
  8659                           ;	Boot Block Code Protection bit
  8660                           ;	CPB = OFF, Boot block (000000-0007FFh) is not code-protected
  8661                           ;	Data EEPROM Code Protection bit
  8662                           ;	CPD = OFF, Data EEPROM is not code-protected
  8663   300009                     	org	3145737
  8664   300009  C0                 	db	192
  8665                           
  8666                           ;Config register CONFIG6L @ 0x30000A
  8667                           ;	Write Protection bit
  8668                           ;	WRT0 = OFF, Block 0 (000800-001FFFh) is not write-protected
  8669                           ;	Write Protection bit
  8670                           ;	WRT1 = OFF, Block 1 (002000-003FFFh) is not write-protected
  8671                           ;	Write Protection bit
  8672                           ;	WRT2 = OFF, Block 2 (004000-005FFFh) is not write-protected
  8673                           ;	Write Protection bit
  8674                           ;	WRT3 = OFF, Block 3 (006000-007FFFh) is not write-protected
  8675   30000A                     	org	3145738
  8676   30000A  0F                 	db	15
  8677                           
  8678                           ;Config register CONFIG6H @ 0x30000B
  8679                           ;	Configuration Register Write Protection bit
  8680                           ;	WRTC = OFF, Configuration registers (300000-3000FFh) are not write-protected
  8681                           ;	Boot Block Write Protection bit
  8682                           ;	WRTB = OFF, Boot block (000000-0007FFh) is not write-protected
  8683                           ;	Data EEPROM Write Protection bit
  8684                           ;	WRTD = OFF, Data EEPROM is not write-protected
  8685   30000B                     	org	3145739
  8686   30000B  E0                 	db	224
  8687                           
  8688                           ;Config register CONFIG7L @ 0x30000C
  8689                           ;	Table Read Protection bit
  8690                           ;	EBTR0 = OFF, Block 0 (000800-001FFFh) is not protected from table reads executed in ot
      +                          her blocks
  8691                           ;	Table Read Protection bit
  8692                           ;	EBTR1 = OFF, Block 1 (002000-003FFFh) is not protected from table reads executed in ot
      +                          her blocks
  8693                           ;	Table Read Protection bit
  8694                           ;	EBTR2 = OFF, Block 2 (004000-005FFFh) is not protected from table reads executed in ot
      +                          her blocks
  8695                           ;	Table Read Protection bit
  8696                           ;	EBTR3 = OFF, Block 3 (006000-007FFFh) is not protected from table reads executed in ot
      +                          her blocks
  8697   30000C                     	org	3145740
  8698   30000C  0F                 	db	15
  8699                           
  8700                           ;Config register CONFIG7H @ 0x30000D
  8701                           ;	Boot Block Table Read Protection bit
  8702                           ;	EBTRB = OFF, Boot block (000000-0007FFh) is not protected from table reads executed in
      +                           other blocks
  8703   30000D                     	org	3145741
  8704   30000D  40                 	db	64
  8705                           tosu	equ	0xFFF
  8706                           tosh	equ	0xFFE
  8707                           tosl	equ	0xFFD
  8708                           stkptr	equ	0xFFC
  8709                           pclatu	equ	0xFFB
  8710                           pclath	equ	0xFFA
  8711                           pcl	equ	0xFF9
  8712                           tblptru	equ	0xFF8
  8713                           tblptrh	equ	0xFF7
  8714                           tblptrl	equ	0xFF6
  8715                           tablat	equ	0xFF5
  8716                           prodh	equ	0xFF4
  8717                           prodl	equ	0xFF3
  8718                           indf0	equ	0xFEF
  8719                           postinc0	equ	0xFEE
  8720                           postdec0	equ	0xFED
  8721                           preinc0	equ	0xFEC
  8722                           plusw0	equ	0xFEB
  8723                           fsr0h	equ	0xFEA
  8724                           fsr0l	equ	0xFE9
  8725                           wreg	equ	0xFE8
  8726                           indf1	equ	0xFE7
  8727                           postinc1	equ	0xFE6
  8728                           postdec1	equ	0xFE5
  8729                           preinc1	equ	0xFE4
  8730                           plusw1	equ	0xFE3
  8731                           fsr1h	equ	0xFE2
  8732                           fsr1l	equ	0xFE1
  8733                           bsr	equ	0xFE0
  8734                           indf2	equ	0xFDF
  8735                           postinc2	equ	0xFDE
  8736                           postdec2	equ	0xFDD
  8737                           preinc2	equ	0xFDC
  8738                           plusw2	equ	0xFDB
  8739                           fsr2h	equ	0xFDA
  8740                           fsr2l	equ	0xFD9
  8741                           status	equ	0xFD8

Data Sizes:
    Strings     35
    Constant    0
    Data        20
    BSS         99
    Persistent  0
    Stack       0

Auto Spaces:
    Space          Size  Autos    Used
    COMRAM           94     43      69
    BANK0           160    146     159
    BANK1           256      0      80
    BANK2           256      0       0
    BANK3           256      0       0
    BANK4           256      0       0
    BANK5           256      0       0
    BANK6           256      0       0
    BANK7           256      0       0

Pointer List with Targets:

    strcpy@dest	PTR unsigned char  size(2) Largest target is 80
		 -> dbuf(BANK1[80]), 

    strcpy@d	PTR unsigned char  size(2) Largest target is 80
		 -> dbuf(BANK1[80]), 

    strcpy@src	PTR const unsigned char  size(2) Largest target is 4
		 -> STR_6(CODE[4]), STR_3(CODE[4]), 

    strcpy@s	PTR const unsigned char  size(2) Largest target is 4
		 -> STR_6(CODE[4]), STR_3(CODE[4]), 

    fputs@s	PTR const unsigned char  size(2) Largest target is 80
		 -> dbuf(BANK1[80]), 

    fputs@fp	PTR struct _IO_FILE size(2) Largest target is 11
		 -> sprintf@f(BANK0[11]), 

    fputc@fp...source	PTR const unsigned char  size(2) Largest target is 0

    fputc@fp...buffer	PTR unsigned char  size(2) Largest target is 0

    fputc@fp	PTR struct _IO_FILE size(2) Largest target is 11
		 -> sprintf@f(BANK0[11]), 

    memcpy@d1	PTR void  size(2) Largest target is 80
		 -> dbuf(BANK1[80]), 

    memcpy@d	PTR unsigned char  size(2) Largest target is 80
		 -> dbuf(BANK1[80]), 

    memcpy@s1	PTR const void  size(2) Largest target is 80
		 -> dbuf(BANK1[80]), 

    memcpy@s	PTR const unsigned char  size(2) Largest target is 80
		 -> dbuf(BANK1[80]), 

    vfprintf@ap	PTR PTR void  size(2) Largest target is 2
		 -> sprintf@ap(BANK0[2]), 

    vfprintf@fp	PTR struct _IO_FILE size(2) Largest target is 11
		 -> sprintf@f(BANK0[11]), 

    vfprintf@fmt	PTR const unsigned char  size(2) Largest target is 6
		 -> STR_1(CODE[6]), 

    vfprintf@cfmt	PTR unsigned char  size(2) Largest target is 6
		 -> STR_1(CODE[6]), 

    vfpfcnvrt@fp	PTR struct _IO_FILE size(2) Largest target is 11
		 -> sprintf@f(BANK0[11]), 

    vfpfcnvrt@ap	PTR PTR void  size(2) Largest target is 2
		 -> sprintf@ap(BANK0[2]), 

    vfpfcnvrt@cp	PTR unsigned char  size(2) Largest target is 6
		 -> STR_1(CODE[6]), 

    vfpfcnvrt@fmt	PTR PTR unsigned char  size(2) Largest target is 2
		 -> vfprintf@cfmt(BANK0[2]), 

    S970$vp	PTR void  size(2) Largest target is 0

    convarg.vp	PTR void  size(2) Largest target is 0

    sp__memcpy	PTR void  size(2) Largest target is 80
		 -> dbuf(BANK1[80]), 

    efgtoa@fp	PTR struct _IO_FILE size(2) Largest target is 11
		 -> sprintf@f(BANK0[11]), 

    sp__strcpy	PTR unsigned char  size(2) Largest target is 80
		 -> dbuf(BANK1[80]), 

    pad@buf	PTR unsigned char  size(2) Largest target is 80
		 -> dbuf(BANK1[80]), 

    pad@fp	PTR struct _IO_FILE size(2) Largest target is 11
		 -> sprintf@f(BANK0[11]), 

    sprintf@fmt	PTR const unsigned char  size(2) Largest target is 6
		 -> STR_1(CODE[6]), 

    sprintf@s	PTR unsigned char  size(2) Largest target is 20
		 -> aux(COMRAM[20]), 

    sprintf@ap	PTR void [1] size(2) Largest target is 2
		 -> ?_sprintf(BANK0[2]), 

    S891$source	PTR const unsigned char  size(2) Largest target is 0

    f...source	PTR const unsigned char  size(2) Largest target is 0

    S891$buffer	PTR unsigned char  size(2) Largest target is 0

    f...buffer	PTR unsigned char  size(2) Largest target is 0

    LCD_Out@text	PTR unsigned char  size(2) Largest target is 21
		 -> STR_2(CODE[21]), aux(COMRAM[20]), 


Critical Paths under _main in COMRAM

    None.

Critical Paths under _captura in COMRAM

    _captura->i2___flmul
    i2___flmul->___xxtofl

Critical Paths under _main in BANK0

    _main->_sprintf
    _sprintf->_vfprintf
    _vfprintf->_vfpfcnvrt
    _vfpfcnvrt->_efgtoa
    _efgtoa->_floorf
    _pad->_fputs
    _fputs->_fputc
    _floorf->___fldiv
    ___flsub->___flmul
    ___flge->___flmul
    _LCD_Out->_LCD_XY
    _LCD_XY->_LCD_Cmd
    _LCD_Cmd->_enviar_dato
    _LCD_Chr_Cp->_enviar_dato
    _LCD_Init->_enviar_dato

Critical Paths under _captura in BANK0

    None.

Critical Paths under _main in BANK1

    None.

Critical Paths under _captura in BANK1

    None.

Critical Paths under _main in BANK2

    None.

Critical Paths under _captura in BANK2

    None.

Critical Paths under _main in BANK3

    None.

Critical Paths under _captura in BANK3

    None.

Critical Paths under _main in BANK4

    None.

Critical Paths under _captura in BANK4

    None.

Critical Paths under _main in BANK5

    None.

Critical Paths under _captura in BANK5

    None.

Critical Paths under _main in BANK6

    None.

Critical Paths under _captura in BANK6

    None.

Critical Paths under _main in BANK7

    None.

Critical Paths under _captura in BANK7

    None.

Call Graph Tables:

 ---------------------------------------------------------------------------------
 (Depth) Function   	        Calls       Base Space   Used Autos Params    Refs
 ---------------------------------------------------------------------------------
 (0) _main                                                 0     0      0   29414
                            _LCD_Cmd
                           _LCD_Init
                            _LCD_Out
                        _ccp1_config
                   _config_interrups
                      _config_timer1
                            _sprintf
                        _timer1_init
 ---------------------------------------------------------------------------------
 (1) _timer1_init                                          0     0      0       0
 ---------------------------------------------------------------------------------
 (1) _sprintf                                             23    15      8   27507
                                            125 BANK0     21    13      8
                           _vfprintf
 ---------------------------------------------------------------------------------
 (2) _vfprintf                                             8     2      6   27015
                                            117 BANK0      8     2      6
                          _vfpfcnvrt
 ---------------------------------------------------------------------------------
 (3) _vfpfcnvrt                                           23    17      6   26554
                                             98 BANK0     19    13      6
                             _efgtoa
                              _fputc
 ---------------------------------------------------------------------------------
 (4) _efgtoa                                              54    47      7   24817
                                             45 BANK0     53    46      7
                            ___fladd
                            ___fldiv
                             ___fleq
                             ___flge
                            ___flmul
                            ___flneg
                            ___flsub
                            ___fltol
                      ___fpclassifyf
                             _floorf
                               _labs
                             _memcpy
                                _pad
                             _strcpy
 ---------------------------------------------------------------------------------
 (5) _strcpy                                               8     4      4     497
                                              0 BANK0      8     4      4
 ---------------------------------------------------------------------------------
 (5) _pad                                                 11     5      6    3073
                                             16 BANK0     11     5      6
                              _fputc
                              _fputs
 ---------------------------------------------------------------------------------
 (6) _fputs                                                7     3      4    1177
                                              9 BANK0      7     3      4
                              _fputc
 ---------------------------------------------------------------------------------
 (4) _fputc                                                9     5      4     857
                                              0 BANK0      9     5      4
                              _putch
 ---------------------------------------------------------------------------------
 (5) _putch                                                1     1      0       0
 ---------------------------------------------------------------------------------
 (5) _memcpy                                              11     5      6     478
                                              0 BANK0     11     5      6
 ---------------------------------------------------------------------------------
 (5) _labs                                                 8     4      4     363
                                              0 BANK0      8     4      4
 ---------------------------------------------------------------------------------
 (5) _floorf                                              20    16      4     490
                                             25 BANK0     20    16      4
                            ___fldiv (ARG)
 ---------------------------------------------------------------------------------
 (5) ___fpclassifyf                                       14    10      4     375
                                              0 BANK0     14    10      4
 ---------------------------------------------------------------------------------
 (5) ___fltol                                             10     6      4     607
                                              0 BANK0     10     6      4
 ---------------------------------------------------------------------------------
 (5) ___flsub                                              8     0      8    4007
                                             25 BANK0      8     0      8
                            ___fladd
                            ___flmul (ARG)
 ---------------------------------------------------------------------------------
 (6) ___fladd                                             16     8      8    3442
                                              0 BANK0     16     8      8
 ---------------------------------------------------------------------------------
 (5) ___flneg                                              4     0      4     155
                                              0 BANK0      4     0      4
 ---------------------------------------------------------------------------------
 (5) ___flmul                                             25    17      8    3523
                                              0 BANK0     25    17      8
 ---------------------------------------------------------------------------------
 (5) ___flge                                              12     4      8     790
                                             25 BANK0     12     4      8
                            ___flmul (ARG)
 ---------------------------------------------------------------------------------
 (5) ___fleq                                              12     4      8     770
                                              0 BANK0     12     4      8
 ---------------------------------------------------------------------------------
 (5) ___fldiv                                             25    17      8    2723
                                              0 BANK0     25    17      8
 ---------------------------------------------------------------------------------
 (1) _config_timer1                                        0     0      0       0
 ---------------------------------------------------------------------------------
 (1) _config_interrups                                     0     0      0       0
 ---------------------------------------------------------------------------------
 (1) _ccp1_config                                          0     0      0       0
 ---------------------------------------------------------------------------------
 (1) _LCD_Out                                              4     1      3    1380
                                              8 BANK0      4     1      3
                         _LCD_Chr_Cp
                             _LCD_XY
 ---------------------------------------------------------------------------------
 (2) _LCD_XY                                               4     3      1     614
                                              4 BANK0      4     3      1
                            _LCD_Cmd
 ---------------------------------------------------------------------------------
 (3) _LCD_Cmd                                              1     1      0     279
                                              3 BANK0      1     1      0
                        _enviar_dato
 ---------------------------------------------------------------------------------
 (2) _LCD_Chr_Cp                                           1     1      0     279
                                              3 BANK0      1     1      0
                        _enviar_dato
 ---------------------------------------------------------------------------------
 (1) _LCD_Init                                             1     1      0     248
                                              3 BANK0      1     1      0
                        _enviar_dato
 ---------------------------------------------------------------------------------
 (4) _enviar_dato                                          3     3      0     248
                                              0 BANK0      3     3      0
 ---------------------------------------------------------------------------------
 Estimated maximum stack depth 6
 ---------------------------------------------------------------------------------
 (Depth) Function   	        Calls       Base Space   Used Autos Params    Refs
 ---------------------------------------------------------------------------------
 (9) _captura                                              4     4      0    1916
                                             39 COMRAM     4     4      0
                           ___xxtofl
                          i2___flmul
 ---------------------------------------------------------------------------------
 (10) i2___flmul                                          25    17      8    1518
                                             14 COMRAM    25    17      8
                           ___xxtofl (ARG)
 ---------------------------------------------------------------------------------
 (10) ___xxtofl                                           14    10      4     398
                                              0 COMRAM    14    10      4
 ---------------------------------------------------------------------------------
 Estimated maximum stack depth 10
 ---------------------------------------------------------------------------------

 Call Graph Graphs:

 _main (ROOT)
   _LCD_Cmd
     _enviar_dato
   _LCD_Init
     _enviar_dato
   _LCD_Out
     _LCD_Chr_Cp
       _enviar_dato
     _LCD_XY
       _LCD_Cmd
   _ccp1_config
   _config_interrups
   _config_timer1
   _sprintf
     _vfprintf
       _vfpfcnvrt
         _efgtoa
           ___fladd
           ___fldiv
           ___fleq
           ___flge
             ___flmul (ARG)
           ___flmul
           ___flneg
           ___flsub
             ___fladd
             ___flmul (ARG)
           ___fltol
           ___fpclassifyf
           _floorf
             ___fldiv (ARG)
           _labs
           _memcpy
           _pad
             _fputc
               _putch
             _fputs
               _fputc
           _strcpy
         _fputc
   _timer1_init

 _captura (ROOT)
   ___xxtofl
   i2___flmul
     ___xxtofl (ARG)

 Address spaces:
Name               Size   Autos  Total    Cost      Usage
BIGRAM             7FF      0       0      29        0.0%
EEDATA             100      0       0       0        0.0%
BITBANK7           100      0       0      18        0.0%
BANK7              100      0       0      19        0.0%
BITBANK6           100      0       0      16        0.0%
BANK6              100      0       0      17        0.0%
BITBANK5           100      0       0      14        0.0%
BANK5              100      0       0      15        0.0%
BITBANK4           100      0       0      12        0.0%
BANK4              100      0       0      13        0.0%
BITBANK3           100      0       0      10        0.0%
BANK3              100      0       0      11        0.0%
BITBANK2           100      0       0       8        0.0%
BANK2              100      0       0       9        0.0%
BITBANK1           100      0       0       6        0.0%
BANK1              100      0      50       7       31.2%
BITBANK0            A0      0       0       4        0.0%
BANK0               A0     92      9F       5       99.4%
BITCOMRAM           5E      0       0       0        0.0%
COMRAM              5E     2B      45       1       73.4%
BITBIGSFRllll       2C      0       0      27        0.0%
BITBIGSFRhhl        22      0       0      21        0.0%
BITBIGSFRlh         1E      0       0      24        0.0%
BITBIGSFRhhh         D      0       0      20        0.0%
BITBIGSFRhlh         B      0       0      22        0.0%
BITBIGSFRlllh        7      0       0      26        0.0%
BITBIGSFRllh         7      0       0      25        0.0%
BITBIGSFRhll         1      0       0      23        0.0%
BIGSFR               0      0       0     200        0.0%
BITSFR               0      0       0     200        0.0%
SFR                  0      0       0     200        0.0%
STACK                0      0       0       2        0.0%
NULL                 0      0       0       0        0.0%
ABS                  0      0     134      28        0.0%
DATA                 0      0     134       3        0.0%
CODE                 0      0       0       0        0.0%


Microchip Technology PIC18 Macro Assembler V2.40 build 20220703182018 
Symbol Table                                                                                   Thu Oct 12 13:40:48 2023

             ?_LCD_Chr_Cp 0001              ___fldiv@aexp 0078              ___fldiv@bexp 0077  
            ___fldiv@sign 0070                        l60 3496                        l63 3468  
                      l82 2E7A                        l66 34A0                        l91 348C  
                      l85 29F0                        l69 34A4                        l94 347A  
                     l103 2FB0                       l115 3120                       l418 2AF8  
                     l380 2F26                       l703 22DA                       l391 2BFE  
                     l705 213A                       l714 2180                       l386 2BB8  
                     l650 1406                       l395 3442                       l651 13CC  
                     l716 21F8                       l708 20FE                       l717 21E6  
                     l742 19A6                       l735 17B0                       l911 32E4  
                     l752 1AD6                       l744 1A1E                       l904 24F4  
                     l745 1A0C                       l649 1418                       l921 2CFE  
                     l833 30B0                       l666 1532                       l658 16E8  
                     l739 1B14                       l675 1602                       l691 33C6  
                     l931 264E                       l676 15F0                       l844 1226  
                     l829 3058                       l942 3188                       l847 0BBE  
                     l928 270A                       l960 2DCA                       l849 09FE  
                     l939 3178                       l971 34A6                       l948 3336  
                     l877 1006                       l799 3292                       l968 337E  
                     l977 3408                       _aux 002C                       _pad 3034  
                     wreg 000FE8               i2___flmul@a 0013               i2___flmul@b 000F  
            ___flmul@aexp 006D              ___flmul@bexp 0072              ___flmul@sign 006C  
            ___flmul@temp 0077              ___flmul@prod 0073           __end_of_LCD_Cmd 347C  
         __end_of_LCD_Out 3122              ___fltol@exp1 0069                      l4001 145A  
                    l4011 1494                      l4003 1468                      l4021 1500  
                    l4013 1496                      l4005 1476                      l3061 24F6  
                    l4101 335E                      l4111 1F6E                      l4103 1F40  
                    l4031 1558                      l4023 1502                      l4015 14A0  
                    l4007 1482                      l3063 2516                      l4201 21A2  
                    l4121 1FA8                      l4113 1F7E                      l4105 1F4E  
                    l4041 1586                      l4025 1512                      l4009 1486  
                    l4017 14A6                      l3081 26C2                      l3073 2602  
                    l3065 256E                      l4211 2214                      l4203 21B0  
                    l4131 1FD4                      l4123 1FAE                      l4115 1F8E  
                    l4107 1F5C                      l4043 1594                      l4035 156C  
                    l4051 15B2                      l4019 14CC                      l4027 1522  
                    l3083 26EA                      l3075 263E                      l3067 2582  
                    l4221 2280                      l4213 2222                      l4205 21DE  
                    l4141 200E                      l4133 1FE4                      l4125 1FB4  
                    l4117 1F90                      l4109 1F5E                      l4301 1876  
                    l4045 159C                      l4037 1576                      l4029 1548  
                    l4053 15C0                      l3085 26FA                      l3069 2590  
                    l3077 2672                      l4231 22CE                      l4223 229A  
                    l4215 224C                      l4143 2024                      l4135 1FF4  
                    l4127 1FC2                      l4119 1F98                      l4311 18D8  
                    l4303 1882                      l4063 1612                      l4071 1668  
                    l4055 15C4                      l4047 15A0                      l4039 1584  
                    l3079 26AE                      l4233 22D0                      l4225 22B6  
                    l4209 2208                      l4217 2250                      l4161 2078  
                    l4145 2034                      l4153 2054                      l4137 1FF6  
                    l4129 1FC4                      l4321 196E                      l4313 18E4  
                    l4305 1892                      l4241 16EA                      l4081 16BA  
                    l4073 1678                      l4065 161E                      l4057 15D2  
                    l4049 15B0                      l4401 29F2                      l4227 22BA  
                    l4219 226A                      l4171 20CA                      l4163 2092  
                    l4155 2064                      l4147 203C                      l4139 1FFE  
                    l4331 19C4                      l4323 198C                      l4315 1900  
                    l4307 18AC                      l4251 1728                      l4243 16F8  
                    l4091 16D8                      l4083 16C0                      l4075 1688  
                    l4067 162C                      l4059 15E8                      l4411 2A4A  
                    l4403 2A0A                      l4501 28C4                      l4229 22C8  
                    l4181 2126                      l4173 20DA                      l4165 20A2  
                    l4157 2064                      l4149 2040                      l4341 1A2E  
                    l4333 19C8                      l4325 1996                      l4317 192A  
                    l4309 18BC                      l4261 175A                      l4253 1738  
                    l4245 1706                      l4085 16C2                      l4077 16A8  
                    l4069 1666                      l4413 2A5A                      l4511 2944  
                    l4503 28D6                      l4191 2166                      l4183 2128  
                    l4175 20EE                      l4167 20B2                      l4351 1A90  
                    l4343 1A3A                      l4335 19D6                      l4327 19A4  
                    l4319 1960                      l4271 179A                      l4263 1768  
                    l4255 173E                      l4247 1708                      l4087 16C8  
                    l4079 16AC                      l4423 2A84                      l4415 2A5E  
                    l4407 2A1E                      l4095 3338                      l4521 2980  
                    l4513 295E                      l4505 28DE                      l4193 2170  
                    l4185 2138                      l4177 20FC                      l4169 20C2  
                    l4361 1AF8                      l4353 1AA4                      l4345 1A48  
                    l4337 1A04                      l4329 19B6                      l4281 17E4  
                    l4273 17A0                      l4265 176A                      l4257 174E  
                    l4249 1718                      l4089 16D6                      l4441 2AE8  
                    l4433 2AAC                      l4425 2A8E                      l4417 2A6C  
                    l4409 2A48                      l4097 3346                      l4531 29E6  
                    l4523 299A                      l4515 2960                      l4507 28FA  
                    l4195 217E                      l4187 214A                      l4179 2108  
                    l4363 1AFA                      l4355 1ABE                      l4347 1A72  
                    l4291 1834                      l4283 17F0                      l4275 17C0  
                    l4267 177A                      l4259 1754                      l4371 3380  
                    l4435 2AB8                      l4427 2A98                      l4099 3358  
                    l4451 3064                      l4611 0A12                      l4603 09AE  
                    l4533 29E8                      l4525 29BA                      l4517 2968  
                    l4509 291E                      l4189 2160                      l4197 2190  
                    l4381 2EBC                      l4357 1ADA                      l4365 1B00  
                    l4349 1A76                      l4293 1840                      l4285 17FA  
                    l4277 17D0                      l4269 178A                      l3901 1256  
                    l4373 3392                      l4437 2AC8                      l4461 2C20  
                    l4453 3078                      l4445 3034                      l4701 0F64  
                    l4621 0B0C                      l4613 0A46                      l4605 09C6  
                    l5093 236E                      ?_pad 0070                      l4535 29EA  
                    l4527 29DC                      l4519 296A                      l4199 219E  
                    l4383 2EEA                      l2951 2B78                      l2943 2AFA  
                    l4367 1B04                      l4359 1AEA                      l4295 184C  
                    l4287 1810                      l3911 1290                      l3903 1266  
                    l4439 2AD8                      l4463 2C60                      l4471 2CA0  
                    l4455 307E                      l4447 3044                      l4711 1036  
                    l4703 0FDE                      l4631 0BC6                      l4623 0B40  
                    l4615 0A86                      l4551 084E                      l4543 0826  
                    l5095 2428                      l4537 29EC                      l4529 29DE  
                    l4385 2EFA                      l4377 2E7C                      l2961 2BFC  
                    l2953 2B86                      l2945 2B2A                      l4297 185A  
                    l4289 181C                      l4393 340A                      l3921 12BE  
                    l3913 1296                      l3905 1276                      l4473 2CB2  
                    l4465 2C88                      l4457 309C                      l4449 3050  
                    l4481 33C8                      l4721 105C                      l4713 103A  
                    l4705 0FFE                      l4641 0BF4                      l4633 0BD4  
                    l4625 0B48                      l4617 0ABA                      l4609 0A0E  
                    l4561 08A4                      l4553 0872                      l4545 082C  
                    l5097 24AA                      l4539 29EE                      l5099 2F76  
                    l4387 2F1E                      l4379 2EAC                      l2955 2B98  
                    l2947 2B3A                      l4299 1866                      l4395 3422  
                    l3931 12F2                      l3923 12C0                      l3915 12A8  
                    l3907 1278                      l4467 2C94                      l4459 2C00  
                    l4491 32FA                      l4483 33D8                      l4731 1090  
                    l4723 1062                      l4715 1040                      l4707 1018  
                    l4643 0C06                      l4651 0C46                      l4635 0BE0  
                    l4619 0AF8                      l4571 08F4                      l4563 08B0  
                    l4555 087C                      l4547 083C                      l4803 2414  
                    l4901 2DEC                      l4389 2F24                      l2957 2BA6  
                    l2949 2B68                      l4397 3432                      l3941 132E  
                    l3925 12D0                      l3933 12FA                      l3917 12AA  
                    l3909 1280                      l4477 2CF6                      l4485 3122  
                    l4493 3306                      l4733 1096                      l4717 1048  
                    l4709 1026                      l4725 1068                      l4741 1130  
                    l4661 0D2E                      l4653 0C4E                      l4645 0C14  
                    l4637 0BE8                      l4629 0B8A                      l4581 0928  
                    l4573 08F8                      l4565 08B8                      l4557 0884  
                    l4549 084A                      l4813 248C                      l4805 243E  
                    l4911 2E2C                      l4903 2DF2                      l2959 2BF6  
                    l3951 1342                      l3943 1332                      l3935 130A  
                    l3927 12E0                      l3919 12B0                      l4487 3142  
                    l4495 330A                      l4751 11B2                      l4743 114E  
                    l4735 10EE                      l4727 107A                      l4719 1058  
                    l4671 0DF0                      l4663 0D64                      l4655 0C5E  
                    l4647 0C2C                      l4639 0BF0                      l4591 0984  
                    l4575 08FE                      l4559 0894                      l4567 08BC  
                    l4807 245E                      l4815 24B8                      l4921 2E64  
                    l4913 2E3A                      l4905 2E08                      l3961 1356  
                    l3953 1346                      l3945 1336                      l3937 131C  
                    l3929 12F0                      l4497 3316                      l4489 32E6  
                    l3881 2D14                      l4761 1206                      l4753 11C0  
                    l4745 116A                      l4737 1124                      l4729 108C  
                    l4681 0E8A                      l4673 0E04                      l4657 0C72  
                    l4665 0D6A                      l4649 0C3E                      l4593 098A  
                    l4577 0906                      l4569 08E4                      l4585 0948  
                    l4923 2E6C                      l4915 2E42                      l4907 2E10  
                    l4851 2F54                      l4843 2F2C                      l3963 135A  
                    l3955 134A                      l3947 133A                      l3939 132A  
                    l3971 136A                      l4499 331A                      l3883 2D26  
                    l4755 11D8                      l4747 1172                      l4739 112C  
                    l4683 0EE4                      l4691 0F34                      l4675 0E38  
                    l4667 0D88                      l4659 0CD6                      l4595 0992  
                    l4587 0970                      l4579 091E                      l4819 24CA  
                    l4931 325C                      l4917 2E50                      l4909 2E26  
                    l4765 346E                      l4845 2F30                      l4941 30C6  
                    l3981 13DA                      l3973 136E                      l3965 135E  
                    l3957 134E                      l3949 133E                      l3893 1228  
                    l3885 2D30                      l4757 11E8                      l4749 1182  
                    l4693 0F44                      l4685 0EE8                      l4677 0E46  
                    l4669 0DBC                      l4589 0980                      l4781 2320  
                    l4773 22DC                      l4933 3264                      l4919 2E56  
                    l4871 348A                      l4767 3470                      l4847 2F3C  
                    l4855 2F60                      l4943 30EA                      l3991 1404  
                    l3983 13E6                      l3975 1398                      l3967 1362  
                    l3959 1352                      l3895 1236                      l3887 2D4E  
                    l3879 2D00                      l4759 11FE                      l4695 0F4C  
                    l4687 0F1C                      l4679 0E56                      l4783 2330  
                    l4775 2300                      l4935 3280                      l4927 3242  
                    l4951 3190                      l4769 3478                      l4849 2F48  
                    l4857 2F9C                      l4945 30F0                      l3993 1426  
                    l3985 13EA                      l3977 13B4                      l3969 1366  
                    l3897 1244                      l3889 2D84                      l4697 0F50  
                    l4689 0F30                      l4785 2342                      l4793 235A  
                    l4777 230E                      l4881 32DA                      l4929 3254  
                    l4961 31AE                      l4953 319C                      l4867 3480  
                    l4859 2FAE                      l4939 30B6                      l4891 345E  
                    l3995 1436                      l3987 13F8                      l3979 13C4  
                    l3899 1246                      l4699 0F58                      l4787 234A  
                    l4795 238C                      l4779 231C                      l4875 3294  
                    l4963 31D4                      l4955 31A0                      l4947 318A  
                    l4869 3482                      l4893 3498                      l4885 348E  
                    l3989 13FA                      l4797 23AC                      l4789 2352  
                    l4877 32A0                      l4957 31A4                      l4949 318E  
                    l4887 3458                      l3999 144A                      l4799 23E0  
                    l4879 32BE                      l4895 34A2                      l4959 31A8  
                    l4897 2DCC                      l4889 345C                      l4899 2DDA  
                    STR_1 0816                      STR_2 0801                      STR_3 081C  
                    STR_6 0820                      u3100 256E                      u3101 256A  
                    u3110 2590                      u3111 258C                      u4000 12D0  
                    u4001 12CC                      u4010 12E0                      u3130 25FE  
                    u4011 12DC                      u3131 25FA                      u4100 1426  
                    u4020 131C                      u3140 2622                      u4101 1422  
                    u4021 1318                      u3125 25A4                      u4110 1436  
                    u4030 132A                      u3150 263E                      u3126 25AE  
                    u4111 1432                      u4031 1326                      u3151 263A  
                    u3127 25BE                      u4200 1594                      u4120 1468  
                    u4040 1398                      u3160 2692                      u4201 1590  
                    u4121 1464                      u4041 1394                      u3145 2618  
                    u4210 15B0                      u4130 1476                      u4050 13B0  
                    u3170 26AE                      u3090 2540                      u4211 15AC  
                    u4131 1472                      u4051 13AA                      u3171 26AA  
                    u4300 1688                      u4220 15C0                      u4140 1494  
                    u4060 13B2                      u3180 26EA                      u5100 09FA  
                    u5005 2902                      u4301 1684                      u4221 15BC  
                    u4141 1490                      u3181 26E6                      u3165 2688  
                    u5101 09F6                      u4310 16A8                      u4230 15D2  
                    u4150 14CC                      u4070 13DA                      u5110 0A86  
                    u5030 084A                      u5015 2926                      u4311 16A4  
                    u4231 15CE                      u4151 14C8                      u4071 13D6  
                    u3095 2536                      u5111 0A82                      u5031 0846  
                    u4400 1FE4                      u4320 16BA                      u4240 15E8  
                    u4160 1512                      u4080 13F8                      u5200 0D88  
                    u5120 0ABA                      u5040 0894                      u5025 294C  
                    u4401 1FE0                      u4321 16B6                      u4241 15E4  
                    u4161 150E                      u4081 13F4                      u5201 0D84  
                    u5121 0AB6                      u5041 0890                      u4410 2024  
                    u4330 16D6                      u4250 15FE                      u4170 1548  
                    u4090 1418                      u5210 0DF0                      u5130 0AF8  
                    u5050 08A4                      u4411 2020                      u4331 16D2  
                    u4251 15FA                      u4171 1544                      u4091 1414  
                    u5211 0DEC                      u5131 0AF4                      u5051 08A0  
                    u4500 21B0                      u4420 2064                      u4260 1612  
                    u4180 1558                      u4340 337E                      u5300 114E  
                    u5220 0E38                      u5140 0B86                      u5060 08E4  
                    u4501 21AC                      u4421 2060                      u4261 160E  
                    u4181 1554                      u4341 337A                      u5301 114A  
                    u5221 0E34                      u5141 0B82                      u5061 08E0  
                    u4510 21DE                      u4430 20DA                      u4350 1F5C  
                    u4270 162C                      u4190 1584                      u5310 116A  
                    u5230 0E46                      u5150 0BBE                      u5070 08F4  
                    u4511 21DA                      u4431 20D6                      u4351 1F58  
                    u4271 1628                      u4191 1580                      u5311 1166  
                    u5231 0E42                      u5151 0BBA                      u5071 08F0  
                    u5400 3120                      u4520 21F4                      u4440 20FC  
                    u4360 1F6E                      u4600 1728                      u4280 1666  
                    u5320 11D2                      u5240 0EE4                      u5160 0BD4  
                    u5080 0970                      u5401 311C                      u4521 21F0  
                    u4441 20F8                      u4361 1F6A                      u4601 1724  
                    u4281 1662                      u5321 11CC                      u5241 0EE0  
                    u5161 0BD0                      u5081 096C                      u4530 2208  
                    u4450 2126                      u4370 1F7E                      u2850 2B2A  
                    u4610 1768                      u4290 1678                      u5330 11D4  
                    u5250 0F30                      u5170 0C06                      u5090 0980  
                    u4531 2204                      u4451 2122                      u4371 1F7A  
                    u2851 2B26                      u4611 1764                      u4291 1674  
                    u5251 0F2C                      u5171 0C02                      u5091 097C  
                    u4540 2222                      u4460 214A                      u4380 1FC2  
                    u2860 2B68                      u4700 1A04                      u4620 177A  
                    u5340 11E8                      u5260 0FDE                      u5180 0C14  
                    u4541 221E                      u4461 2146                      u4381 1FBE  
                    u2861 2B64                      u4701 1A00                      u4621 1776  
                    u5341 11E4                      u5261 0FDA                      u5181 0C10  
                    u4550 226A                      u4470 2160                      u4390 1FD4  
                    u2870 2B86                      u4710 1A1A                      u4630 178A  
                    u3910 2D14                      u5270 1018                      u5190 0C3E  
                    u5350 2300                      u4551 2266                      u4471 215C  
                    u4391 1FD0                      u2871 2B82                      u4711 1A16  
                    u4631 1786                      u3911 2D10                      u5271 1014  
                    u5191 0C3A                      u5351 22FC                      u4560 229A  
                    u4480 217E                      u2880 2BA6                      u4720 1A2E  
                    u4640 17C0                      u4800 3422                      u3920 2D26  
                    u5280 1026                      u5360 23A8                      u4561 2296  
                    u4481 217A                      u2881 2BA2                      u4721 1A2A  
                    u4641 17BC                      u4801 341E                      u3921 2D22  
                    u5281 1022                      u5361 23A4                      u4570 22C8  
                    u4490 219E                      u2890 2BF6                      u4730 1A48  
                    u4650 17D0                      u4810 2A0A                      u3930 2D4E  
                    u5290 107A                      u5370 32DA                      u5507 2E4A  
                    u5427 2FA4                      u4571 22C4                      u4491 219A  
                    u2891 2BF2                      u4731 1A44                      u4651 17CC  
                    u4811 2A06                      u3931 2D4A                      u5291 1076  
                    u5371 32D6                      u5380 30E6                      u4740 1A90  
                    u4660 194A                      u4580 1706                      u4820 2A3E  
                    u4900 2C42                      u3940 2D84                      u5517 2E58  
                    u5437 2DE2                      u4741 1A8C                      u4581 1702  
                    u3941 2D80                      u5390 3110                      u4750 1ABE  
                    u4670 19A4                      u4590 1718                      u3950 1244  
                    u4830 2A6C                      u4910 2C60                      u5527 2E66  
                    u5447 2DFA                      u4751 1ABA                      u4671 19A0  
                    u4591 1714                      u3951 1240                      u4831 2A68  
                    u4911 2C5C                      u4760 1AF8                      u4680 19C4  
                    u3960 1256                      u4840 2A80                      u4920 2C88  
                    u5537 2E74                      u5457 2E0A                      u4761 1AF4  
                    u4681 19C0                      u4665 1940                      u3961 1252  
                    u4841 2A7C                      u4825 2A34                      u4921 2C84  
                    u4905 2C36                      u4770 2EAC                      u4690 19D6  
                    u3970 1266                      u4850 2AA8                      u4930 2CB2  
                    u5547 28D8                      u5467 2E18                      u5387 30DC  
                    u4771 2EA8                      u4691 19D2                      u3971 1262  
                    u4851 2AA4                      u4931 2CAE                      u4780 2EEA  
                    u3980 12A8                      u4860 2AC8                      u5557 2962  
                    u5477 2E20                      u5397 3106                      u4781 2EE6  
                    u3981 12A4                      u4861 2AC4                      u4790 2F1E  
                    u3990 12BE                      u4870 2AD8                      u4950 2CEC  
                    u5567 29E0                      u5487 2E2E                      u4791 2F1A  
                    u3991 12BA                      u4871 2AD4                      u4951 2CE6  
                    u4960 2CEE                      u4880 3044                      i2l49 3028  
                    u5497 2E3C                      u4945 2CC4                      u4881 3040  
                    u4890 309C                      u4970 3408                      u4891 3098  
                    u4971 3404                      u4980 3142                      u4981 313E  
                    u4990 3336                      u4991 3332                      _dbuf 0100  
                    _labs 3122                      _main 318A                      _prec 00FC  
                    pad@i 0077                      pad@p 0074                      fsr1h 000FE2  
                    fsr2h 000FDA                      indf1 000FE7                      indf2 000FDF  
                    fsr1l 000FE1                      pad@w 0079                      fsr2l 000FD9  
                    btemp 0046             ___fpclassifyf 2C00                      prodh 000FF4  
                    prodl 000FF3              ?_enviar_dato 0001                      start 000E  
         ___fldiv@new_exp 0071              ___param_bank 000000                     ??_pad 0076  
        __end_of_LCD_Init 2E7C               LCD_Out@text 0069             ___fltol@sign1 0068  
                   ?_labs 0060           __end_of___fladd 16EA                     ?_main 0001  
         __end_of___fldiv 22DC           __end_of___flneg 3444           __end_of___flmul 1B16  
         __end_of___flsub 33C8           __end_of___fltol 2AFA                     i2l742 1DD0  
                   i2l735 1BDA                     i2l752 1F00                     i2l744 1E48  
                   i2l745 1E36                     i2l739 1F3E                     i2l790 2856  
                   i2l783 27FA                     i2l776 2762                     i2l779 28BE  
            vfpfcnvrt@fmt 00C4                     _TMR1H 000FCF                     _TMR1L 000FCE  
                   _TRISC 000F94           __end_of_captura 3034                     _flags 00FE  
                   _fputc 2D00                     _fputs 3338                     _pasos 0044  
            LCD_XY@column 0064                     labs@a 0060                     pad@fp 0070  
                   _width 00FA                     _putch 34A6                     tablat 000FF5  
                   ttemp5 0047                     ttemp6 004A                     ttemp7 004E  
                   status 000FD8           ??_config_timer1 0060                     wtemp8 0047  
         __end_of_sprintf 3294            ?___fpclassifyf 0060             i2___flmul@grs 001C  
         __initialization 31F0              __end_of_labs 318A              __end_of_main 31F0  
                  ??_labs 0064                    ??_main 00F2             __activetblptr 000002  
               ??_LCD_Cmd 0063                 ??_LCD_Out 006B                    _ADCON1 000FC1  
                  ?_fputc 0060                    ?_fputs 0069                    _CCPR1H 000FBF  
                  _CCPR1L 000FBE                    ?_putch 0001                    _LCD_XY 2F28  
                  i2l3601 1B42                    i2l3611 1B7E                    i2l3603 1B52  
                  i2l3701 1EA0                    i2l3621 1BB4                    i2l3613 1B84  
                  i2l3605 1B62                    i2l3551 272C                    i2l3711 1F14  
                  i2l3703 1EBA                    i2l3623 1BC4                    i2l3615 1B92  
                  i2l3607 1B68                    i2l3561 27A4                    i2l3553 2772  
                  i2l3713 1F22                    i2l3705 1ECE                    i2l3641 1C46  
                  i2l3633 1C0E                    i2l3625 1BCA                    i2l3617 1B94  
                  i2l3609 1B78                    i2l3571 282C                    i2l3563 27B0  
                  i2l3555 2788                    i2l3547 270E                    i2l3715 1F24  
                  i2l3707 1EE8                    i2l3651 1C90                    i2l3643 1C5E  
                  i2l3635 1C1A                    i2l3627 1BEA                    i2l3619 1BA4  
                  i2l3731 3026                    i2l3723 2FBC                    i2l3581 286A  
                  i2l3573 2838                    i2l3565 27E2                    i2l3549 271E  
                  i2l3709 1F04                    i2l3717 1F2A                    i2l3661 1CE6  
                  i2l3653 1CA0                    i2l3645 1C6A                    i2l3637 1C24  
                  i2l3629 1BFA                    i2l3725 2FD2                    i2l3583 288E  
                  i2l3575 2846                    i2l3567 27E4                    i2l3559 279C  
                  i2l3719 1F2E                    i2l3671 1D8A                    i2l3663 1D02  
                  i2l3655 1CAC                    i2l3647 1C76                    i2l3639 1C3A  
                  i2l3727 2FD6                    i2l3585 289E                    i2l3577 2864  
                  i2l3569 27F0                    i2l3681 1DE0                    i2l3673 1D98  
                  i2l3665 1D0E                    i2l3657 1CBC                    i2l3649 1C84  
                  i2l3593 1B16                    i2l3729 2FDA                    i2l3587 28AC  
                  i2l3579 2866                    i2l3683 1DEE                    i2l3675 1DB6  
                  i2l3667 1D2A                    i2l3659 1CD6                    i2l3595 1B22  
                  i2l3589 28AE                    i2l3693 1E58                    i2l3685 1DF2  
                  i2l3677 1DC0                    i2l3669 1D54                    i2l3597 1B30  
                  i2l3695 1E64                    i2l3687 1E00                    i2l3679 1DCE  
                  i2l3599 1B32                    i2l3697 1E72                    i2l3689 1E2E  
                  i2l3699 1E9C          __end_of___xxtofl 28C0              vfprintf@cfmt 00DB  
                  ___flge 2AFA                    ___fleq 2E7C                 ??___fladd 0068  
               ??___fldiv 0068                 ??___flneg 0064                 ??___flmul 0068  
               ??___flsub 0081                 ??___fltol 0064              ?_timer1_init 0001  
                  _efgtoa 0826                    _floorf 24F6                    _memcpy 32E6  
                  clear_0 3216                    clear_1 3222                 ??_captura 0028  
                  isa$std 000001                    pad@buf 0072                    _strcpy 33C8  
                  fputc@c 0060                    fputs@c 006D                    fputs@i 006E  
            __pdataCOMRAM 002C                    fputs@s 0069         __end_ofi2___flmul 1F40  
         ___fpclassifyf@e 0068           ___fpclassifyf@u 006A           ___fpclassifyf@x 0060  
            __mediumconst 0000            enviar_dato@cmd 0062                    tblptrh 000FF7  
                  tblptrl 000FF6                    tblptru 000FF8                    putch@c 0001  
        __end_of_vfprintf 32E6                 ??_sprintf 00E5            i2___flmul@aexp 0020  
          i2___flmul@bexp 0021            i2___flmul@sign 001B            i2___flmul@temp 0026  
          i2___flmul@prod 0022                ___flge@ff1 0079                ___flge@ff2 007D  
         ??___fpclassifyf 0064              ___xxtofl@arg 000B              ___xxtofl@exp 000A  
            ___xxtofl@val 0001                ___fleq@ff1 0060                ___fleq@ff2 0064  
              __accesstop 0060   __end_of__initialization 3234                 ?_LCD_Init 0001  
              ___flneg@f1 0060             ___rparam_used 000001                ___fltol@f1 0060  
               LCD_XY@row 0067              ??_LCD_Chr_Cp 0063            __pcstackCOMRAM 0001  
           __end_of_fputc 2DCC             __end_of_fputs 3380             __end_of_putch 34A8  
                 ??_fputc 0064                   ??_fputs 006D                   ??_putch 0060  
      __end_of_LCD_Chr_Cp 348E                __pbssBANK0 00F2                __pbssBANK1 0100  
                 ?_LCD_XY 0064             ??_ccp1_config 0060                ??_LCD_Init 0063  
           LCD_Out@column 0068                   ?___flge 0079                   ?___fleq 0060  
                 ?_efgtoa 008D                   ?_floorf 0079                   ?_memcpy 0060  
                 ?_strcpy 0060                   _LCD_Cmd 346A                   _LCD_Out 30B2  
               ?___xxtofl 0001                   __Hparam 0000                   __Lparam 0000  
     __end_of_ccp1_config 34A2                   ___fladd 1228                   ___fldiv 1F40  
                 ___flneg 340A                   ___flmul 16EA                   ___flsub 3380  
                 ___fltol 29F2                 ?_vfprintf 00D5              __psmallconst 0800  
                 __pcinit 31F0                   __ramtop 0800                   _captura 0008  
                 __ptext0 318A                   __ptext1 34A2                   __ptext2 3242  
                 __ptext3 3294                   __ptext4 22DC                   __ptext5 0826  
                 __ptext6 33C8                   __ptext7 3034                   __ptext8 3338  
                 __ptext9 2D00                 _T1CONbits 000FCD                ??___xxtofl 0005  
        _config_interrups 348E                   _periodo 00F6                   efgtoa@c 0093  
                 efgtoa@d 00A1                   efgtoa@e 00A5                   efgtoa@f 008F  
                 efgtoa@g 00B8                   efgtoa@h 00AF                   efgtoa@i 00AD  
                 efgtoa@l 00B3                   efgtoa@m 00A3                   efgtoa@n 00BC  
                 efgtoa@p 0098                   efgtoa@t 009A                   efgtoa@u 00BE  
                 efgtoa@w 00A7                   _sprintf 3242            __pintcode_body 2FB2  
    end_of_initialization 3234                   floorf@e 0087                   floorf@m 0083  
                 floorf@u 0089                   floorf@x 0079                   memcpy@d 0067  
                 memcpy@n 0064                   memcpy@s 0069                   fputc@fp 0062  
           __Lmediumconst 0000                   int_func 2FB2                   fputs@fp 006B  
   __end_of_config_timer1 346A         __end_of_vfpfcnvrt 24F6                efgtoa@mode 009F  
              efgtoa@sign 00B7                   postdec1 000FE5                   postdec2 000FDD  
                 postinc0 000FEE                   postinc1 000FE6                   postinc2 000FDE  
        vfpfcnvrt@convarg 00CA                ??_vfprintf 00DB                   strcpy@d 0066  
                 strcpy@s 0064               ___fladd@grs 006F             ___xxtofl@sign 0009  
               _TRISDbits 000F95               ___fldiv@grs 0073               ___fldiv@rem 006C  
               i2___flmul 1B16               ___flmul@grs 006E               _ccp1_config 3498  
              LCD_Cmd@cmd 0063            __end_of_LCD_XY 2FB2               _CCP1CONbits 000FBD  
              LCD_Out@row 006B            __end_of___flge 2C00            __end_of___fleq 2F28  
             vfpfcnvrt@ap 00C6               vfpfcnvrt@cp 00D3               vfpfcnvrt@fp 00C2  
           __pidataCOMRAM 3444            __end_of_efgtoa 1228            __end_of_floorf 270C  
          __end_of_memcpy 3338                floorf@F526 00F2            __end_of_strcpy 340A  
     start_initialization 31F0               __end_of_pad 30B2                ?i2___flmul 000F  
                ??_LCD_XY 0065     __end_of___fpclassifyf 2D00             ??_enviar_dato 0060  
             vfprintf@fmt 00D7                  ??___flge 0081                  ??___fleq 0068  
                ??_efgtoa 0094                  ??_floorf 007D                  ??_memcpy 0066  
                ??_strcpy 0064                 ___fladd@a 0064                 ___fladd@b 0060  
                ?_LCD_Cmd 0001                 ___fldiv@a 0064                 ___fldiv@b 0060  
                ?_LCD_Out 0068                 ___flmul@a 0064                 ___flmul@b 0060  
             __pbssCOMRAM 0040                 ___flsub@a 007D                 ___flsub@b 0079  
           __pcstackBANK0 0060  __end_of_config_interrups 3498               _efgtoa$1019 009C  
               __pintcode 0008                  ?___fladd 0060                  ?___fldiv 0060  
                ?___flneg 0060                  ?___flmul 0060                  ?___flsub 0079  
                ?___fltol 0060       __end_of_enviar_dato 29F2                  ?_captura 0001  
             __smallconst 0800           LCD_Chr_Cp@letra 0063                  ?_sprintf 00DD  
             ??i2___flmul 0017                  _LCD_Init 2DCC                  _LATDbits 000F8C  
                _PIE1bits 000F9D                  i2u361_40 271E                  i2u361_41 271A  
                _PIR1bits 000F9E                  i2u370_40 28AC                  i2u362_40 272C  
                i2u370_41 28A8                  i2u362_41 2728                  i2u363_40 2788  
                i2u371_40 1B30                  i2u363_41 2784                  i2u371_41 1B2C  
                i2u364_40 27DE                  i2u380_40 1DCE                  i2u372_40 1B42  
                i2u364_41 27DA                  i2u380_41 1DCA                  i2u372_41 1B3E  
                i2u365_40 2828                  i2u381_40 1DEE                  i2u373_40 1B52  
                i2u365_41 2824                  i2u381_41 1DEA                  i2u373_41 1B4E  
                i2u366_40 2846                  i2u382_40 1E00                  i2u374_40 1B92  
                i2u366_41 2842                  i2u382_41 1DFC                  i2u374_41 1B8E  
                i2u367_40 2856                  i2u383_40 1E2E                  i2u375_40 1BA4  
                i2u367_41 2852                  i2u383_41 1E2A                  i2u375_41 1BA0  
                i2u368_40 2864                  i2u384_40 1E44                  i2u376_40 1BB4  
                i2u368_41 2860                  i2u384_41 1E40                  i2u376_41 1BB0  
                i2u369_40 289E                  i2u385_40 1E58                  i2u377_40 1BEA  
                i2u369_41 289A                  i2u385_41 1E54                  i2u377_41 1BE6  
                i2u386_40 1E72                  i2u378_40 1BFA                  i2u386_41 1E6E  
                i2u378_41 1BF6                  i2u387_40 1EBA                  i2u379_40 1D74  
                i2u387_41 1EB6                  i2u379_45 1D6A                  i2u388_40 1EE8  
                i2u388_41 1EE4                  i2u389_40 1F22                  i2u389_41 1F1E  
           ??_timer1_init 0060                 _vfpfcnvrt 22DC                vfpfcnvrt@c 00D2  
               copy_data0 3204              ?_ccp1_config 0001               _enviar_dato 28C0  
                __Hrparam 0000                 memcpy@tmp 0066                vfprintf@ap 00D9  
                __Lrparam 0000                vfprintf@fp 00D5                ?_vfpfcnvrt 00C2  
      ___fpclassifyf@F465 0040       __end_of_timer1_init 34A6                sprintf@fmt 00DF  
                ___xxtofl 270C                  __ptext10 34A6                  __ptext11 32E6  
                __ptext20 2AFA                  __ptext12 3122                  __ptext21 2E7C  
                __ptext13 24F6                  __ptext30 2DCC                  __ptext22 1F40  
                __ptext14 2C00                  __ptext31 28C0                  __ptext23 3458  
                __ptext15 29F2                  __ptext24 348E                  __ptext16 3380  
                __ptext33 1B16                  __ptext25 3498                  __ptext17 1228  
                __ptext34 270C                  __ptext26 30B2                  __ptext18 340A  
                __ptext27 2F28                  __ptext19 16EA                  __ptext28 346A  
                __ptext29 347C                strcpy@dest 0060                  efgtoa@fp 008D  
                efgtoa@ne 0096                  efgtoa@pp 009E                  efgtoa@ou 00A9  
              _LCD_Chr_Cp 347C                  isa$xinst 000000                  int$flags 0046  
                _vfprintf 3294                _INTCONbits 000FF2                  memcpy@d1 0060  
                memcpy@s1 0062                  intlevel2 0000                 sprintf@ap 00E5  
               strcpy@src 0062             _config_timer1 3458         ?_config_interrups 0001  
             efgtoa@nmode 00A0        ??_config_interrups 0060               _timer1_init 34A2  
             ??_vfpfcnvrt 00C8                  sprintf@f 00E7                  sprintf@s 00DD  
           ___fladd@signs 006C              ___fladd@aexp 006D              ___fladd@bexp 006E  
          ?_config_timer1 0001  
